TN:
SF:/usr/include/c++/11/bits/hashtable_policy.h
FN:93,_ZNKSt8__detail10_Select1stclIRKSt4pairIKNSt7__cxx1112basic_stringIcSt11char_traitsIcESaIcEEES8_EEEDTcl3getILi0EEcl7forwardIT_Efp_EEEOSD_
FNDA:222,_ZNKSt8__detail10_Select1stclIRKSt4pairIKNSt7__cxx1112basic_stringIcSt11char_traitsIcESaIcEEES8_EEEDTcl3getILi0EEcl7forwardIT_Efp_EEEOSD_
FN:219,_ZNSt8__detail15_Hash_node_baseC2Ev
FNDA:0,_ZNSt8__detail15_Hash_node_baseC2Ev
FN:237,_ZNSt8__detail21_Hash_node_value_baseISt4pairIKNSt7__cxx1112basic_stringIcSt11char_traitsIcESaIcEEES7_EE9_M_valptrEv
FNDA:210,_ZNSt8__detail21_Hash_node_value_baseISt4pairIKNSt7__cxx1112basic_stringIcSt11char_traitsIcESaIcEEES7_EE9_M_valptrEv
FN:241,_ZNKSt8__detail21_Hash_node_value_baseISt4pairIKNSt7__cxx1112basic_stringIcSt11char_traitsIcESaIcEEES7_EE9_M_valptrEv
FNDA:222,_ZNKSt8__detail21_Hash_node_value_baseISt4pairIKNSt7__cxx1112basic_stringIcSt11char_traitsIcESaIcEEES7_EE9_M_valptrEv
FN:245,_ZNSt8__detail21_Hash_node_value_baseISt4pairIKNSt7__cxx1112basic_stringIcSt11char_traitsIcESaIcEEES7_EE4_M_vEv
FNDA:100,_ZNSt8__detail21_Hash_node_value_baseISt4pairIKNSt7__cxx1112basic_stringIcSt11char_traitsIcESaIcEEES7_EE4_M_vEv
FN:249,_ZNKSt8__detail21_Hash_node_value_baseISt4pairIKNSt7__cxx1112basic_stringIcSt11char_traitsIcESaIcEEES7_EE4_M_vEv
FNDA:222,_ZNKSt8__detail21_Hash_node_value_baseISt4pairIKNSt7__cxx1112basic_stringIcSt11char_traitsIcESaIcEEES7_EE4_M_vEv
FN:282,_ZNKSt8__detail10_Hash_nodeISt4pairIKNSt7__cxx1112basic_stringIcSt11char_traitsIcESaIcEEES7_ELb1EE7_M_nextEv
FNDA:24,_ZNKSt8__detail10_Hash_nodeISt4pairIKNSt7__cxx1112basic_stringIcSt11char_traitsIcESaIcEEES7_ELb1EE7_M_nextEv
FN:295,_ZNSt8__detail19_Node_iterator_baseISt4pairIKNSt7__cxx1112basic_stringIcSt11char_traitsIcESaIcEEES7_ELb1EEC2EPNS_10_Hash_nodeIS9_Lb1EEE
FNDA:268,_ZNSt8__detail19_Node_iterator_baseISt4pairIKNSt7__cxx1112basic_stringIcSt11char_traitsIcESaIcEEES7_ELb1EEC2EPNS_10_Hash_nodeIS9_Lb1EEE
FN:309,_ZNSt8__detailneERKNS_19_Node_iterator_baseISt4pairIKNSt7__cxx1112basic_stringIcSt11char_traitsIcESaIcEEES7_ELb1EEESC_
FNDA:126,_ZNSt8__detailneERKNS_19_Node_iterator_baseISt4pairIKNSt7__cxx1112basic_stringIcSt11char_traitsIcESaIcEEES7_ELb1EEESC_
FN:338,_ZNSt8__detail14_Node_iteratorISt4pairIKNSt7__cxx1112basic_stringIcSt11char_traitsIcESaIcEEES7_ELb0ELb1EEC2EPNS_10_Hash_nodeIS9_Lb1EEE
FNDA:268,_ZNSt8__detail14_Node_iteratorISt4pairIKNSt7__cxx1112basic_stringIcSt11char_traitsIcESaIcEEES7_ELb0ELb1EEC2EPNS_10_Hash_nodeIS9_Lb1EEE
FN:346,_ZNKSt8__detail14_Node_iteratorISt4pairIKNSt7__cxx1112basic_stringIcSt11char_traitsIcESaIcEEES7_ELb0ELb1EEptEv
FNDA:78,_ZNKSt8__detail14_Node_iteratorISt4pairIKNSt7__cxx1112basic_stringIcSt11char_traitsIcESaIcEEES7_ELb0ELb1EEptEv
FN:428,_ZNKSt8__detail18_Mod_range_hashingclEmm
FNDA:0,_ZNKSt8__detail18_Mod_range_hashingclEmm
FN:446,_ZNSt8__detail20_Prime_rehash_policyC2Ef
FNDA:0,_ZNSt8__detail20_Prime_rehash_policyC2Ef
FN:473,_ZNKSt8__detail20_Prime_rehash_policy8_M_stateEv
FNDA:0,_ZNKSt8__detail20_Prime_rehash_policy8_M_stateEv
FN:481,_ZNSt8__detail20_Prime_rehash_policy8_M_resetEm
FNDA:0,_ZNSt8__detail20_Prime_rehash_policy8_M_resetEm
FN:696,_ZNSt8__detail9_Map_baseINSt7__cxx1112basic_stringIcSt11char_traitsIcESaIcEEESt4pairIKS6_S6_ESaIS9_ENS_10_Select1stESt8equal_toIS6_ESt4hashIS6_ENS_18_Mod_range_hashingENS_20_Default_ranged_hashENS_20_Prime_rehash_policyENS_17_Hashtable_traitsILb1ELb0ELb1EEELb1EEixERS8_
FNDA:116,_ZNSt8__detail9_Map_baseINSt7__cxx1112basic_stringIcSt11char_traitsIcESaIcEEESt4pairIKS6_S6_ESaIS9_ENS_10_Select1stESt8equal_toIS6_ESt4hashIS6_ENS_18_Mod_range_hashingENS_20_Default_ranged_hashENS_20_Prime_rehash_policyENS_17_Hashtable_traitsILb1ELb0ELb1EEELb1EEixERS8_
FN:1127,_ZNSt8__detail21_Hashtable_ebo_helperILi0ESaINS_10_Hash_nodeISt4pairIKNSt7__cxx1112basic_stringIcSt11char_traitsIcESaIcEEES8_ELb1EEEELb1EEC2Ev
FNDA:2,_ZNSt8__detail21_Hashtable_ebo_helperILi0ESaINS_10_Hash_nodeISt4pairIKNSt7__cxx1112basic_stringIcSt11char_traitsIcESaIcEEES8_ELb1EEEELb1EEC2Ev
FN:1127,_ZNSt8__detail21_Hashtable_ebo_helperILi1ESt4hashINSt7__cxx1112basic_stringIcSt11char_traitsIcESaIcEEEELb1EEC2Ev
FNDA:2,_ZNSt8__detail21_Hashtable_ebo_helperILi1ESt4hashINSt7__cxx1112basic_stringIcSt11char_traitsIcESaIcEEEELb1EEC2Ev
FN:1127,_ZNSt8__detail21_Hashtable_ebo_helperILi0ESt8equal_toINSt7__cxx1112basic_stringIcSt11char_traitsIcESaIcEEEELb1EEC2Ev
FNDA:2,_ZNSt8__detail21_Hashtable_ebo_helperILi0ESt8equal_toINSt7__cxx1112basic_stringIcSt11char_traitsIcESaIcEEEELb1EEC2Ev
FN:1134,_ZNKSt8__detail21_Hashtable_ebo_helperILi1ESt4hashINSt7__cxx1112basic_stringIcSt11char_traitsIcESaIcEEEELb1EE7_M_cgetEv
FNDA:0,_ZNKSt8__detail21_Hashtable_ebo_helperILi1ESt4hashINSt7__cxx1112basic_stringIcSt11char_traitsIcESaIcEEEELb1EE7_M_cgetEv
FN:1134,_ZNKSt8__detail21_Hashtable_ebo_helperILi0ESt8equal_toINSt7__cxx1112basic_stringIcSt11char_traitsIcESaIcEEEELb1EE7_M_cgetEv
FNDA:0,_ZNKSt8__detail21_Hashtable_ebo_helperILi0ESt8equal_toINSt7__cxx1112basic_stringIcSt11char_traitsIcESaIcEEEELb1EE7_M_cgetEv
FN:1135,_ZNSt8__detail21_Hashtable_ebo_helperILi0ESaINS_10_Hash_nodeISt4pairIKNSt7__cxx1112basic_stringIcSt11char_traitsIcESaIcEEES8_ELb1EEEELb1EE6_M_getEv
FNDA:68,_ZNSt8__detail21_Hashtable_ebo_helperILi0ESaINS_10_Hash_nodeISt4pairIKNSt7__cxx1112basic_stringIcSt11char_traitsIcESaIcEEES8_ELb1EEEELb1EE6_M_getEv
FN:1210,_ZNSt8__detail15_Hash_code_baseINSt7__cxx1112basic_stringIcSt11char_traitsIcESaIcEEESt4pairIKS6_S6_ENS_10_Select1stESt4hashIS6_ENS_18_Mod_range_hashingENS_20_Default_ranged_hashELb1EEC2Ev
FNDA:2,_ZNSt8__detail15_Hash_code_baseINSt7__cxx1112basic_stringIcSt11char_traitsIcESaIcEEESt4pairIKS6_S6_ENS_10_Select1stESt4hashIS6_ENS_18_Mod_range_hashingENS_20_Default_ranged_hashELb1EEC2Ev
FN:1215,_ZNKSt8__detail15_Hash_code_baseINSt7__cxx1112basic_stringIcSt11char_traitsIcESaIcEEESt4pairIKS6_S6_ENS_10_Select1stESt4hashIS6_ENS_18_Mod_range_hashingENS_20_Default_ranged_hashELb1EE12_M_hash_codeERS8_
FNDA:242,_ZNKSt8__detail15_Hash_code_baseINSt7__cxx1112basic_stringIcSt11char_traitsIcESaIcEEESt4pairIKS6_S6_ENS_10_Select1stESt4hashIS6_ENS_18_Mod_range_hashingENS_20_Default_ranged_hashELb1EE12_M_hash_codeERS8_
FN:1232,_ZNKSt8__detail15_Hash_code_baseINSt7__cxx1112basic_stringIcSt11char_traitsIcESaIcEEESt4pairIKS6_S6_ENS_10_Select1stESt4hashIS6_ENS_18_Mod_range_hashingENS_20_Default_ranged_hashELb1EE15_M_bucket_indexEmm
FNDA:244,_ZNKSt8__detail15_Hash_code_baseINSt7__cxx1112basic_stringIcSt11char_traitsIcESaIcEEESt4pairIKS6_S6_ENS_10_Select1stESt4hashIS6_ENS_18_Mod_range_hashingENS_20_Default_ranged_hashELb1EE15_M_bucket_indexEmm
FN:1247,_ZNKSt8__detail15_Hash_code_baseINSt7__cxx1112basic_stringIcSt11char_traitsIcESaIcEEESt4pairIKS6_S6_ENS_10_Select1stESt4hashIS6_ENS_18_Mod_range_hashingENS_20_Default_ranged_hashELb1EE15_M_bucket_indexERKNS_16_Hash_node_valueIS9_Lb1EEEm
FNDA:8,_ZNKSt8__detail15_Hash_code_baseINSt7__cxx1112basic_stringIcSt11char_traitsIcESaIcEEESt4pairIKS6_S6_ENS_10_Select1stESt4hashIS6_ENS_18_Mod_range_hashingENS_20_Default_ranged_hashELb1EE15_M_bucket_indexERKNS_16_Hash_node_valueIS9_Lb1EEEm
FN:1263,_ZNKSt8__detail15_Hash_code_baseINSt7__cxx1112basic_stringIcSt11char_traitsIcESaIcEEESt4pairIKS6_S6_ENS_10_Select1stESt4hashIS6_ENS_18_Mod_range_hashingENS_20_Default_ranged_hashELb1EE13_M_store_codeERNS_21_Hash_node_code_cacheILb1EEEm
FNDA:16,_ZNKSt8__detail15_Hash_code_baseINSt7__cxx1112basic_stringIcSt11char_traitsIcESaIcEEESt4pairIKS6_S6_ENS_10_Select1stESt4hashIS6_ENS_18_Mod_range_hashingENS_20_Default_ranged_hashELb1EE13_M_store_codeERNS_21_Hash_node_code_cacheILb1EEEm
FN:1276,_ZNKSt8__detail15_Hash_code_baseINSt7__cxx1112basic_stringIcSt11char_traitsIcESaIcEEESt4pairIKS6_S6_ENS_10_Select1stESt4hashIS6_ENS_18_Mod_range_hashingENS_20_Default_ranged_hashELb1EE7_M_hashEv
FNDA:242,_ZNKSt8__detail15_Hash_code_baseINSt7__cxx1112basic_stringIcSt11char_traitsIcESaIcEEESt4pairIKS6_S6_ENS_10_Select1stESt4hashIS6_ENS_18_Mod_range_hashingENS_20_Default_ranged_hashELb1EE7_M_hashEv
FN:1595,_ZNSt8__detail15_Hashtable_baseINSt7__cxx1112basic_stringIcSt11char_traitsIcESaIcEEESt4pairIKS6_S6_ENS_10_Select1stESt8equal_toIS6_ESt4hashIS6_ENS_18_Mod_range_hashingENS_20_Default_ranged_hashENS_17_Hashtable_traitsILb1ELb0ELb1EEEE9_S_equalsEmRKNS_21_Hash_node_code_cacheILb1EEE
FNDA:222,_ZNSt8__detail15_Hashtable_baseINSt7__cxx1112basic_stringIcSt11char_traitsIcESaIcEEESt4pairIKS6_S6_ENS_10_Select1stESt8equal_toIS6_ESt4hashIS6_ENS_18_Mod_range_hashingENS_20_Default_ranged_hashENS_17_Hashtable_traitsILb1ELb0ELb1EEEE9_S_equalsEmRKNS_21_Hash_node_code_cacheILb1EEE
FN:1604,_ZNSt8__detail15_Hashtable_baseINSt7__cxx1112basic_stringIcSt11char_traitsIcESaIcEEESt4pairIKS6_S6_ENS_10_Select1stESt8equal_toIS6_ESt4hashIS6_ENS_18_Mod_range_hashingENS_20_Default_ranged_hashENS_17_Hashtable_traitsILb1ELb0ELb1EEEEC2Ev
FNDA:2,_ZNSt8__detail15_Hashtable_baseINSt7__cxx1112basic_stringIcSt11char_traitsIcESaIcEEESt4pairIKS6_S6_ENS_10_Select1stESt8equal_toIS6_ESt4hashIS6_ENS_18_Mod_range_hashingENS_20_Default_ranged_hashENS_17_Hashtable_traitsILb1ELb0ELb1EEEEC2Ev
FN:1611,_ZNKSt8__detail15_Hashtable_baseINSt7__cxx1112basic_stringIcSt11char_traitsIcESaIcEEESt4pairIKS6_S6_ENS_10_Select1stESt8equal_toIS6_ESt4hashIS6_ENS_18_Mod_range_hashingENS_20_Default_ranged_hashENS_17_Hashtable_traitsILb1ELb0ELb1EEEE9_M_equalsERS8_mRKNS_16_Hash_node_valueIS9_Lb1EEE
FNDA:222,_ZNKSt8__detail15_Hashtable_baseINSt7__cxx1112basic_stringIcSt11char_traitsIcESaIcEEESt4pairIKS6_S6_ENS_10_Select1stESt8equal_toIS6_ESt4hashIS6_ENS_18_Mod_range_hashingENS_20_Default_ranged_hashENS_17_Hashtable_traitsILb1ELb0ELb1EEEE9_M_equalsERS8_mRKNS_16_Hash_node_valueIS9_Lb1EEE
FN:1650,_ZNKSt8__detail15_Hashtable_baseINSt7__cxx1112basic_stringIcSt11char_traitsIcESaIcEEESt4pairIKS6_S6_ENS_10_Select1stESt8equal_toIS6_ESt4hashIS6_ENS_18_Mod_range_hashingENS_20_Default_ranged_hashENS_17_Hashtable_traitsILb1ELb0ELb1EEEE5_M_eqEv
FNDA:222,_ZNKSt8__detail15_Hashtable_baseINSt7__cxx1112basic_stringIcSt11char_traitsIcESaIcEEESt4pairIKS6_S6_ENS_10_Select1stESt8equal_toIS6_ESt4hashIS6_ENS_18_Mod_range_hashingENS_20_Default_ranged_hashENS_17_Hashtable_traitsILb1ELb0ELb1EEEE5_M_eqEv
FN:1823,_ZNSt8__detail16_Hashtable_allocISaINS_10_Hash_nodeISt4pairIKNSt7__cxx1112basic_stringIcSt11char_traitsIcESaIcEEES8_ELb1EEEEEC2Ev
FNDA:2,_ZNSt8__detail16_Hashtable_allocISaINS_10_Hash_nodeISt4pairIKNSt7__cxx1112basic_stringIcSt11char_traitsIcESaIcEEES8_ELb1EEEEEC2Ev
FN:1833,_ZNSt8__detail16_Hashtable_allocISaINS_10_Hash_nodeISt4pairIKNSt7__cxx1112basic_stringIcSt11char_traitsIcESaIcEEES8_ELb1EEEEE17_M_node_allocatorEv
FNDA:68,_ZNSt8__detail16_Hashtable_allocISaINS_10_Hash_nodeISt4pairIKNSt7__cxx1112basic_stringIcSt11char_traitsIcESaIcEEES8_ELb1EEEEE17_M_node_allocatorEv
FN:1870,_ZNSt8__detail16_Hashtable_allocISaINS_10_Hash_nodeISt4pairIKNSt7__cxx1112basic_stringIcSt11char_traitsIcESaIcEEES8_ELb1EEEEE16_M_allocate_nodeIJRKSt21piecewise_construct_tSt5tupleIJRS9_EESI_IJEEEEEPSB_DpOT_
FNDA:16,_ZNSt8__detail16_Hashtable_allocISaINS_10_Hash_nodeISt4pairIKNSt7__cxx1112basic_stringIcSt11char_traitsIcESaIcEEES8_ELb1EEEEE16_M_allocate_nodeIJRKSt21piecewise_construct_tSt5tupleIJRS9_EESI_IJEEEEEPSB_DpOT_
FN:1892,_ZNSt8__detail16_Hashtable_allocISaINS_10_Hash_nodeISt4pairIKNSt7__cxx1112basic_stringIcSt11char_traitsIcESaIcEEES8_ELb1EEEEE18_M_deallocate_nodeEPSB_
FNDA:16,_ZNSt8__detail16_Hashtable_allocISaINS_10_Hash_nodeISt4pairIKNSt7__cxx1112basic_stringIcSt11char_traitsIcESaIcEEES8_ELb1EEEEE18_M_deallocate_nodeEPSB_
FN:1900,_ZNSt8__detail16_Hashtable_allocISaINS_10_Hash_nodeISt4pairIKNSt7__cxx1112basic_stringIcSt11char_traitsIcESaIcEEES8_ELb1EEEEE22_M_deallocate_node_ptrEPSB_
FNDA:16,_ZNSt8__detail16_Hashtable_allocISaINS_10_Hash_nodeISt4pairIKNSt7__cxx1112basic_stringIcSt11char_traitsIcESaIcEEES8_ELb1EEEEE22_M_deallocate_node_ptrEPSB_
FN:1910,_ZNSt8__detail16_Hashtable_allocISaINS_10_Hash_nodeISt4pairIKNSt7__cxx1112basic_stringIcSt11char_traitsIcESaIcEEES8_ELb1EEEEE19_M_deallocate_nodesEPSB_
FNDA:8,_ZNSt8__detail16_Hashtable_allocISaINS_10_Hash_nodeISt4pairIKNSt7__cxx1112basic_stringIcSt11char_traitsIcESaIcEEES8_ELb1EEEEE19_M_deallocate_nodesEPSB_
FN:1922,_ZNSt8__detail16_Hashtable_allocISaINS_10_Hash_nodeISt4pairIKNSt7__cxx1112basic_stringIcSt11char_traitsIcESaIcEEES8_ELb1EEEEE19_M_allocate_bucketsEm
FNDA:2,_ZNSt8__detail16_Hashtable_allocISaINS_10_Hash_nodeISt4pairIKNSt7__cxx1112basic_stringIcSt11char_traitsIcESaIcEEES8_ELb1EEEEE19_M_allocate_bucketsEm
FN:1935,_ZNSt8__detail16_Hashtable_allocISaINS_10_Hash_nodeISt4pairIKNSt7__cxx1112basic_stringIcSt11char_traitsIcESaIcEEES8_ELb1EEEEE21_M_deallocate_bucketsEPPNS_15_Hash_node_baseEm
FNDA:2,_ZNSt8__detail16_Hashtable_allocISaINS_10_Hash_nodeISt4pairIKNSt7__cxx1112basic_stringIcSt11char_traitsIcESaIcEEES8_ELb1EEEEE21_M_deallocate_bucketsEPPNS_15_Hash_node_baseEm
DA:93,222
DA:95,222
DA:219,0
DA:237,210
DA:238,210
DA:241,222
DA:242,222
DA:245,100
DA:246,100
DA:249,222
DA:250,222
DA:282,24
DA:283,24
DA:295,268
DA:296,268
DA:309,126
DA:311,126
DA:338,268
DA:339,268
DA:346,78
DA:347,78
DA:428,0
DA:430,0
DA:446,0
DA:447,0
DA:473,0
DA:474,0
DA:481,0
DA:482,0
DA:696,116
DA:701,116
DA:702,116
DA:703,116
DA:704,116
DA:705,100
DA:707,16
DA:710,16
DA:711,0
DA:714,16
DA:715,16
DA:716,16
DA:717,16
DA:1127,2
DA:1127,2
DA:1127,2
DA:1134,0
DA:1134,0
DA:1135,68
DA:1210,2
DA:1215,242
DA:1219,242
DA:1232,244
DA:1233,244
DA:1247,8
DA:1251,8
DA:1263,16
DA:1264,16
DA:1276,242
DA:1595,222
DA:1596,222
DA:1604,2
DA:1611,222
DA:1617,222
DA:1650,222
DA:1823,2
DA:1833,68
DA:1834,68
DA:1870,16
DA:1873,16
DA:1874,16
DA:1877,16
DA:1878,16
DA:1881,16
DA:1883,0
DA:1885,0
DA:1886,0
DA:1892,16
DA:1894,16
DA:1895,16
DA:1896,16
DA:1900,16
DA:1903,16
DA:1904,16
DA:1905,16
DA:1906,16
DA:1910,8
DA:1912,24
DA:1914,16
DA:1915,16
DA:1916,16
DA:1918,8
DA:1922,2
DA:1925,2
DA:1927,2
DA:1928,2
DA:1929,2
DA:1930,2
DA:1931,2
DA:1935,2
DA:1940,2
DA:1941,2
DA:1942,2
DA:1943,2
end_of_record
SF:/usr/include/c++/11/ext/aligned_buffer.h
FN:102,_ZN9__gnu_cxx16__aligned_bufferISt4pairIKNSt7__cxx1112basic_stringIcSt11char_traitsIcESaIcEEES7_EE7_M_addrEv
FNDA:210,_ZN9__gnu_cxx16__aligned_bufferISt4pairIKNSt7__cxx1112basic_stringIcSt11char_traitsIcESaIcEEES7_EE7_M_addrEv
FN:108,_ZNK9__gnu_cxx16__aligned_bufferISt4pairIKNSt7__cxx1112basic_stringIcSt11char_traitsIcESaIcEEES7_EE7_M_addrEv
FNDA:222,_ZNK9__gnu_cxx16__aligned_bufferISt4pairIKNSt7__cxx1112basic_stringIcSt11char_traitsIcESaIcEEES7_EE7_M_addrEv
FN:114,_ZN9__gnu_cxx16__aligned_bufferISt4pairIKNSt7__cxx1112basic_stringIcSt11char_traitsIcESaIcEEES7_EE6_M_ptrEv
FNDA:210,_ZN9__gnu_cxx16__aligned_bufferISt4pairIKNSt7__cxx1112basic_stringIcSt11char_traitsIcESaIcEEES7_EE6_M_ptrEv
FN:118,_ZNK9__gnu_cxx16__aligned_bufferISt4pairIKNSt7__cxx1112basic_stringIcSt11char_traitsIcESaIcEEES7_EE6_M_ptrEv
FNDA:222,_ZNK9__gnu_cxx16__aligned_bufferISt4pairIKNSt7__cxx1112basic_stringIcSt11char_traitsIcESaIcEEES7_EE6_M_ptrEv
DA:102,210
DA:104,210
DA:108,222
DA:110,222
DA:114,210
DA:115,210
DA:118,222
DA:119,222
end_of_record
SF:/usr/include/c++/11/tuple
FN:192,_ZNSt10_Head_baseILm0ERKNSt7__cxx1112basic_stringIcSt11char_traitsIcESaIcEEELb0EEC2ES7_
FNDA:16,_ZNSt10_Head_baseILm0ERKNSt7__cxx1112basic_stringIcSt11char_traitsIcESaIcEEELb0EEC2ES7_
FN:233,_ZNSt10_Head_baseILm0ERKNSt7__cxx1112basic_stringIcSt11char_traitsIcESaIcEEELb0EE7_M_headERS8_
FNDA:16,_ZNSt10_Head_baseILm0ERKNSt7__cxx1112basic_stringIcSt11char_traitsIcESaIcEEELb0EE7_M_headERS8_
FN:424,_ZNSt11_Tuple_implILm0EJRKNSt7__cxx1112basic_stringIcSt11char_traitsIcESaIcEEEEE7_M_headERS8_
FNDA:16,_ZNSt11_Tuple_implILm0EJRKNSt7__cxx1112basic_stringIcSt11char_traitsIcESaIcEEEEE7_M_headERS8_
FN:434,_ZNSt11_Tuple_implILm0EJRKNSt7__cxx1112basic_stringIcSt11char_traitsIcESaIcEEEEEC2ES7_
FNDA:16,_ZNSt11_Tuple_implILm0EJRKNSt7__cxx1112basic_stringIcSt11char_traitsIcESaIcEEEEEC2ES7_
FN:454,_ZNSt11_Tuple_implILm0EJRKNSt7__cxx1112basic_stringIcSt11char_traitsIcESaIcEEEEEC2EOS8_
FNDA:16,_ZNSt11_Tuple_implILm0EJRKNSt7__cxx1112basic_stringIcSt11char_traitsIcESaIcEEEEEC2EOS8_
FN:727,_ZNSt5tupleIJRKNSt7__cxx1112basic_stringIcSt11char_traitsIcESaIcEEEEEC2ILb1ELb1EEES7_
FNDA:16,_ZNSt5tupleIJRKNSt7__cxx1112basic_stringIcSt11char_traitsIcESaIcEEEEEC2ILb1ELb1EEES7_
FN:756,_ZNSt5tupleIJRKNSt7__cxx1112basic_stringIcSt11char_traitsIcESaIcEEEEEC2EOS8_
FNDA:16,_ZNSt5tupleIJRKNSt7__cxx1112basic_stringIcSt11char_traitsIcESaIcEEEEEC2EOS8_
FN:1377,_ZSt12__get_helperILm0ERKNSt7__cxx1112basic_stringIcSt11char_traitsIcESaIcEEEJEERT0_RSt11_Tuple_implIXT_EJS8_DpT1_EE
FNDA:16,_ZSt12__get_helperILm0ERKNSt7__cxx1112basic_stringIcSt11char_traitsIcESaIcEEEJEERT0_RSt11_Tuple_implIXT_EJS8_DpT1_EE
FN:1393,_ZSt3getILm0EJRKNSt7__cxx1112basic_stringIcSt11char_traitsIcESaIcEEEEERNSt13tuple_elementIXT_ESt5tupleIJDpT0_EEE4typeERSC_
FNDA:16,_ZSt3getILm0EJRKNSt7__cxx1112basic_stringIcSt11char_traitsIcESaIcEEEEERNSt13tuple_elementIXT_ESt5tupleIJDpT0_EEE4typeERSC_
FN:1804,_ZNSt4pairIKNSt7__cxx1112basic_stringIcSt11char_traitsIcESaIcEEES5_EC2IJRS6_EJEEESt21piecewise_construct_tSt5tupleIJDpT_EESB_IJDpT0_EE
FNDA:16,_ZNSt4pairIKNSt7__cxx1112basic_stringIcSt11char_traitsIcESaIcEEES5_EC2IJRS6_EJEEESt21piecewise_construct_tSt5tupleIJDpT_EESB_IJDpT0_EE
FN:1816,_ZNSt4pairIKNSt7__cxx1112basic_stringIcSt11char_traitsIcESaIcEEES5_EC2IJRS6_EJLm0EEJEJEEERSt5tupleIJDpT_EERSA_IJDpT1_EESt12_Index_tupleIJXspT0_EEESJ_IJXspT2_EEE
FNDA:16,_ZNSt4pairIKNSt7__cxx1112basic_stringIcSt11char_traitsIcESaIcEEES5_EC2IJRS6_EJLm0EEJEJEEERSt5tupleIJDpT_EERSA_IJDpT1_EESt12_Index_tupleIJXspT0_EEESJ_IJXspT2_EEE
DA:192,16
DA:193,16
DA:233,16
DA:424,16
DA:434,16
DA:435,16
DA:436,16
DA:454,16
DA:456,16
DA:457,16
DA:727,16
DA:729,16
DA:756,16
DA:1377,16
DA:1378,16
DA:1393,16
DA:1394,16
DA:1804,16
DA:1809,16
DA:1810,16
DA:1816,16
DA:1819,16
DA:1820,16
DA:1821,16
end_of_record
SF:/usr/include/c++/11/bits/unordered_map.h
FN:141,_ZNSt13unordered_mapINSt7__cxx1112basic_stringIcSt11char_traitsIcESaIcEEES5_St4hashIS5_ESt8equal_toIS5_ESaISt4pairIKS5_S5_EEEC2Ev
FNDA:2,_ZNSt13unordered_mapINSt7__cxx1112basic_stringIcSt11char_traitsIcESaIcEEES5_St4hashIS5_ESt8equal_toIS5_ESaISt4pairIKS5_S5_EEEC2Ev
FN:347,_ZNSt13unordered_mapINSt7__cxx1112basic_stringIcSt11char_traitsIcESaIcEEES5_St4hashIS5_ESt8equal_toIS5_ESaISt4pairIKS5_S5_EEE3endEv
FNDA:126,_ZNSt13unordered_mapINSt7__cxx1112basic_stringIcSt11char_traitsIcESaIcEEES5_St4hashIS5_ESt8equal_toIS5_ESaISt4pairIKS5_S5_EEE3endEv
FN:790,_ZNSt13unordered_mapINSt7__cxx1112basic_stringIcSt11char_traitsIcESaIcEEES5_St4hashIS5_ESt8equal_toIS5_ESaISt4pairIKS5_S5_EEE5clearEv
FNDA:6,_ZNSt13unordered_mapINSt7__cxx1112basic_stringIcSt11char_traitsIcESaIcEEES5_St4hashIS5_ESt8equal_toIS5_ESaISt4pairIKS5_S5_EEE5clearEv
FN:868,_ZNSt13unordered_mapINSt7__cxx1112basic_stringIcSt11char_traitsIcESaIcEEES5_St4hashIS5_ESt8equal_toIS5_ESaISt4pairIKS5_S5_EEE4findERSB_
FNDA:126,_ZNSt13unordered_mapINSt7__cxx1112basic_stringIcSt11char_traitsIcESaIcEEES5_St4hashIS5_ESt8equal_toIS5_ESaISt4pairIKS5_S5_EEE4findERSB_
FN:979,_ZNSt13unordered_mapINSt7__cxx1112basic_stringIcSt11char_traitsIcESaIcEEES5_St4hashIS5_ESt8equal_toIS5_ESaISt4pairIKS5_S5_EEEixERSB_
FNDA:116,_ZNSt13unordered_mapINSt7__cxx1112basic_stringIcSt11char_traitsIcESaIcEEES5_St4hashIS5_ESt8equal_toIS5_ESaISt4pairIKS5_S5_EEEixERSB_
DA:141,2
DA:347,126
DA:348,126
DA:790,6
DA:791,6
DA:868,126
DA:869,126
DA:979,116
DA:980,116
end_of_record
SF:/usr/include/c++/11/bits/alloc_traits.h
FN:463,_ZNSt16allocator_traitsISaIPNSt8__detail15_Hash_node_baseEEE8allocateERS3_m
FNDA:0,_ZNSt16allocator_traitsISaIPNSt8__detail15_Hash_node_baseEEE8allocateERS3_m
FN:463,_ZNSt16allocator_traitsISaINSt8__detail10_Hash_nodeISt4pairIKNSt7__cxx1112basic_stringIcSt11char_traitsIcESaIcEEES8_ELb1EEEEE8allocateERSC_m
FNDA:16,_ZNSt16allocator_traitsISaINSt8__detail10_Hash_nodeISt4pairIKNSt7__cxx1112basic_stringIcSt11char_traitsIcESaIcEEES8_ELb1EEEEE8allocateERSC_m
FN:495,_ZNSt16allocator_traitsISaINSt8__detail10_Hash_nodeISt4pairIKNSt7__cxx1112basic_stringIcSt11char_traitsIcESaIcEEES8_ELb1EEEEE10deallocateERSC_PSB_m
FNDA:16,_ZNSt16allocator_traitsISaINSt8__detail10_Hash_nodeISt4pairIKNSt7__cxx1112basic_stringIcSt11char_traitsIcESaIcEEES8_ELb1EEEEE10deallocateERSC_PSB_m
FN:495,_ZNSt16allocator_traitsISaIPNSt8__detail15_Hash_node_baseEEE10deallocateERS3_PS2_m
FNDA:0,_ZNSt16allocator_traitsISaIPNSt8__detail15_Hash_node_baseEEE10deallocateERS3_PS2_m
FN:511,_ZNSt16allocator_traitsISaINSt8__detail10_Hash_nodeISt4pairIKNSt7__cxx1112basic_stringIcSt11char_traitsIcESaIcEEES8_ELb1EEEEE9constructISA_JRKSt21piecewise_construct_tSt5tupleIJRS9_EESI_IJEEEEEvRSC_PT_DpOT0_
FNDA:16,_ZNSt16allocator_traitsISaINSt8__detail10_Hash_nodeISt4pairIKNSt7__cxx1112basic_stringIcSt11char_traitsIcESaIcEEES8_ELb1EEEEE9constructISA_JRKSt21piecewise_construct_tSt5tupleIJRS9_EESI_IJEEEEEvRSC_PT_DpOT0_
FN:531,_ZNSt16allocator_traitsISaINSt8__detail10_Hash_nodeISt4pairIKNSt7__cxx1112basic_stringIcSt11char_traitsIcESaIcEEES8_ELb1EEEEE7destroyISA_EEvRSC_PT_
FNDA:16,_ZNSt16allocator_traitsISaINSt8__detail10_Hash_nodeISt4pairIKNSt7__cxx1112basic_stringIcSt11char_traitsIcESaIcEEES8_ELb1EEEEE7destroyISA_EEvRSC_PT_
FN:562,_ZNSt16allocator_traitsISaIcEE37select_on_container_copy_constructionERKS0_
FNDA:56,_ZNSt16allocator_traitsISaIcEE37select_on_container_copy_constructionERKS0_
DA:463,0
DA:464,0
DA:463,16
DA:464,16
DA:495,16
DA:496,16
DA:495,0
DA:496,0
DA:511,16
DA:516,16
DA:520,16
DA:531,16
DA:535,16
DA:539,16
DA:562,56
DA:563,56
end_of_record
SF:/usr/include/c++/11/new
FN:174,_ZnwmPv
FNDA:0,_ZnwmPv
FN:180,_ZdlPvS_
FNDA:0,_ZdlPvS_
DA:174,0
DA:175,0
DA:180,0
end_of_record
SF:/usr/include/c++/11/utility
FN:188,_ZNSt10__pair_getILm0EE11__const_getIKNSt7__cxx1112basic_stringIcSt11char_traitsIcESaIcEEES7_EERKT_RKSt4pairIS9_T0_E
FNDA:222,_ZNSt10__pair_getILm0EE11__const_getIKNSt7__cxx1112basic_stringIcSt11char_traitsIcESaIcEEES7_EERKT_RKSt4pairIS9_T0_E
FN:233,_ZSt3getILm0EKNSt7__cxx1112basic_stringIcSt11char_traitsIcESaIcEEES5_ERKNSt13tuple_elementIXT_ESt4pairIT0_T1_EE4typeERKSB_
FNDA:222,_ZSt3getILm0EKNSt7__cxx1112basic_stringIcSt11char_traitsIcESaIcEEES5_ERKNSt13tuple_elementIXT_ESt4pairIT0_T1_EE4typeERKSB_
DA:188,222
DA:189,222
DA:233,222
DA:234,222
end_of_record
SF:/usr/include/c++/11/ext/new_allocator.h
FN:79,_ZN9__gnu_cxx13new_allocatorIPNSt8__detail15_Hash_node_baseEEC2Ev
FNDA:0,_ZN9__gnu_cxx13new_allocatorIPNSt8__detail15_Hash_node_baseEEC2Ev
FN:79,_ZN9__gnu_cxx13new_allocatorINSt8__detail10_Hash_nodeISt4pairIKNSt7__cxx1112basic_stringIcSt11char_traitsIcESaIcEEES9_ELb1EEEEC2Ev
FNDA:2,_ZN9__gnu_cxx13new_allocatorINSt8__detail10_Hash_nodeISt4pairIKNSt7__cxx1112basic_stringIcSt11char_traitsIcESaIcEEES9_ELb1EEEEC2Ev
FN:79,_ZN9__gnu_cxx13new_allocatorIcEC2Ev
FNDA:0,_ZN9__gnu_cxx13new_allocatorIcEC2Ev
FN:82,_ZN9__gnu_cxx13new_allocatorIcEC2ERKS1_
FNDA:0,_ZN9__gnu_cxx13new_allocatorIcEC2ERKS1_
FN:89,_ZN9__gnu_cxx13new_allocatorIPNSt8__detail15_Hash_node_baseEED2Ev
FNDA:0,_ZN9__gnu_cxx13new_allocatorIPNSt8__detail15_Hash_node_baseEED2Ev
FN:89,_ZN9__gnu_cxx13new_allocatorINSt8__detail10_Hash_nodeISt4pairIKNSt7__cxx1112basic_stringIcSt11char_traitsIcESaIcEEES9_ELb1EEEED2Ev
FNDA:2,_ZN9__gnu_cxx13new_allocatorINSt8__detail10_Hash_nodeISt4pairIKNSt7__cxx1112basic_stringIcSt11char_traitsIcESaIcEEES9_ELb1EEEED2Ev
FN:89,_ZN9__gnu_cxx13new_allocatorIcED2Ev
FNDA:0,_ZN9__gnu_cxx13new_allocatorIcED2Ev
FN:103,_ZN9__gnu_cxx13new_allocatorIPNSt8__detail15_Hash_node_baseEE8allocateEmPKv
FNDA:0,_ZN9__gnu_cxx13new_allocatorIPNSt8__detail15_Hash_node_baseEE8allocateEmPKv
FN:103,_ZN9__gnu_cxx13new_allocatorINSt8__detail10_Hash_nodeISt4pairIKNSt7__cxx1112basic_stringIcSt11char_traitsIcESaIcEEES9_ELb1EEEE8allocateEmPKv
FNDA:16,_ZN9__gnu_cxx13new_allocatorINSt8__detail10_Hash_nodeISt4pairIKNSt7__cxx1112basic_stringIcSt11char_traitsIcESaIcEEES9_ELb1EEEE8allocateEmPKv
FN:132,_ZN9__gnu_cxx13new_allocatorINSt8__detail10_Hash_nodeISt4pairIKNSt7__cxx1112basic_stringIcSt11char_traitsIcESaIcEEES9_ELb1EEEE10deallocateEPSC_m
FNDA:16,_ZN9__gnu_cxx13new_allocatorINSt8__detail10_Hash_nodeISt4pairIKNSt7__cxx1112basic_stringIcSt11char_traitsIcESaIcEEES9_ELb1EEEE10deallocateEPSC_m
FN:132,_ZN9__gnu_cxx13new_allocatorIPNSt8__detail15_Hash_node_baseEE10deallocateEPS3_m
FNDA:0,_ZN9__gnu_cxx13new_allocatorIPNSt8__detail15_Hash_node_baseEE10deallocateEPS3_m
FN:160,_ZN9__gnu_cxx13new_allocatorINSt8__detail10_Hash_nodeISt4pairIKNSt7__cxx1112basic_stringIcSt11char_traitsIcESaIcEEES9_ELb1EEEE9constructISB_JRKSt21piecewise_construct_tSt5tupleIJRSA_EESI_IJEEEEEvPT_DpOT0_
FNDA:16,_ZN9__gnu_cxx13new_allocatorINSt8__detail10_Hash_nodeISt4pairIKNSt7__cxx1112basic_stringIcSt11char_traitsIcESaIcEEES9_ELb1EEEE9constructISB_JRKSt21piecewise_construct_tSt5tupleIJRSA_EESI_IJEEEEEvPT_DpOT0_
FN:166,_ZN9__gnu_cxx13new_allocatorINSt8__detail10_Hash_nodeISt4pairIKNSt7__cxx1112basic_stringIcSt11char_traitsIcESaIcEEES9_ELb1EEEE7destroyISB_EEvPT_
FNDA:16,_ZN9__gnu_cxx13new_allocatorINSt8__detail10_Hash_nodeISt4pairIKNSt7__cxx1112basic_stringIcSt11char_traitsIcESaIcEEES9_ELb1EEEE7destroyISB_EEvPT_
FN:197,_ZNK9__gnu_cxx13new_allocatorIPNSt8__detail15_Hash_node_baseEE11_M_max_sizeEv
FNDA:0,_ZNK9__gnu_cxx13new_allocatorIPNSt8__detail15_Hash_node_baseEE11_M_max_sizeEv
FN:197,_ZNK9__gnu_cxx13new_allocatorINSt8__detail10_Hash_nodeISt4pairIKNSt7__cxx1112basic_stringIcSt11char_traitsIcESaIcEEES9_ELb1EEEE11_M_max_sizeEv
FNDA:16,_ZNK9__gnu_cxx13new_allocatorINSt8__detail10_Hash_nodeISt4pairIKNSt7__cxx1112basic_stringIcSt11char_traitsIcESaIcEEES9_ELb1EEEE11_M_max_sizeEv
DA:79,0
DA:79,2
DA:79,0
DA:82,0
DA:89,0
DA:89,2
DA:89,0
DA:103,0
DA:111,0
DA:115,0
DA:116,0
DA:117,0
DA:127,0
DA:103,16
DA:111,16
DA:115,0
DA:116,0
DA:117,0
DA:127,16
DA:132,16
DA:145,16
DA:132,0
DA:145,0
DA:160,16
DA:162,16
DA:166,16
DA:168,16
DA:197,0
DA:200,0
DA:197,16
DA:200,16
end_of_record
SF:/usr/include/c++/11/bits/hashtable.h
FN:302,_ZNSt10_HashtableINSt7__cxx1112basic_stringIcSt11char_traitsIcESaIcEEESt4pairIKS5_S5_ESaIS8_ENSt8__detail10_Select1stESt8equal_toIS5_ESt4hashIS5_ENSA_18_Mod_range_hashingENSA_20_Default_ranged_hashENSA_20_Prime_rehash_policyENSA_17_Hashtable_traitsILb1ELb0ELb1EEEE12_Scoped_nodeC2IJRKSt21piecewise_construct_tSt5tupleIJRS7_EESR_IJEEEEEPNSA_16_Hashtable_allocISaINSA_10_Hash_nodeIS8_Lb1EEEEEEDpOT_
FNDA:16,_ZNSt10_HashtableINSt7__cxx1112basic_stringIcSt11char_traitsIcESaIcEEESt4pairIKS5_S5_ESaIS8_ENSt8__detail10_Select1stESt8equal_toIS5_ESt4hashIS5_ENSA_18_Mod_range_hashingENSA_20_Default_ranged_hashENSA_20_Prime_rehash_policyENSA_17_Hashtable_traitsILb1ELb0ELb1EEEE12_Scoped_nodeC2IJRKSt21piecewise_construct_tSt5tupleIJRS7_EESR_IJEEEEEPNSA_16_Hashtable_allocISaINSA_10_Hash_nodeIS8_Lb1EEEEEEDpOT_
FN:308,_ZNSt10_HashtableINSt7__cxx1112basic_stringIcSt11char_traitsIcESaIcEEESt4pairIKS5_S5_ESaIS8_ENSt8__detail10_Select1stESt8equal_toIS5_ESt4hashIS5_ENSA_18_Mod_range_hashingENSA_20_Default_ranged_hashENSA_20_Prime_rehash_policyENSA_17_Hashtable_traitsILb1ELb0ELb1EEEE12_Scoped_nodeD2Ev
FNDA:16,_ZNSt10_HashtableINSt7__cxx1112basic_stringIcSt11char_traitsIcESaIcEEESt4pairIKS5_S5_ESaIS8_ENSt8__detail10_Select1stESt8equal_toIS5_ESt4hashIS5_ENSA_18_Mod_range_hashingENSA_20_Default_ranged_hashENSA_20_Prime_rehash_policyENSA_17_Hashtable_traitsILb1ELb0ELb1EEEE12_Scoped_nodeD2Ev
FN:421,_ZNKSt10_HashtableINSt7__cxx1112basic_stringIcSt11char_traitsIcESaIcEEESt4pairIKS5_S5_ESaIS8_ENSt8__detail10_Select1stESt8equal_toIS5_ESt4hashIS5_ENSA_18_Mod_range_hashingENSA_20_Default_ranged_hashENSA_20_Prime_rehash_policyENSA_17_Hashtable_traitsILb1ELb0ELb1EEEE21_M_uses_single_bucketEPPNSA_15_Hash_node_baseE
FNDA:4,_ZNKSt10_HashtableINSt7__cxx1112basic_stringIcSt11char_traitsIcESaIcEEESt4pairIKS5_S5_ESaIS8_ENSt8__detail10_Select1stESt8equal_toIS5_ESt4hashIS5_ENSA_18_Mod_range_hashingENSA_20_Default_ranged_hashENSA_20_Prime_rehash_policyENSA_17_Hashtable_traitsILb1ELb0ELb1EEEE21_M_uses_single_bucketEPPNSA_15_Hash_node_baseE
FN:432,_ZNSt10_HashtableINSt7__cxx1112basic_stringIcSt11char_traitsIcESaIcEEESt4pairIKS5_S5_ESaIS8_ENSt8__detail10_Select1stESt8equal_toIS5_ESt4hashIS5_ENSA_18_Mod_range_hashingENSA_20_Default_ranged_hashENSA_20_Prime_rehash_policyENSA_17_Hashtable_traitsILb1ELb0ELb1EEEE19_M_allocate_bucketsEm
FNDA:2,_ZNSt10_HashtableINSt7__cxx1112basic_stringIcSt11char_traitsIcESaIcEEESt4pairIKS5_S5_ESaIS8_ENSt8__detail10_Select1stESt8equal_toIS5_ESt4hashIS5_ENSA_18_Mod_range_hashingENSA_20_Default_ranged_hashENSA_20_Prime_rehash_policyENSA_17_Hashtable_traitsILb1ELb0ELb1EEEE19_M_allocate_bucketsEm
FN:444,_ZNSt10_HashtableINSt7__cxx1112basic_stringIcSt11char_traitsIcESaIcEEESt4pairIKS5_S5_ESaIS8_ENSt8__detail10_Select1stESt8equal_toIS5_ESt4hashIS5_ENSA_18_Mod_range_hashingENSA_20_Default_ranged_hashENSA_20_Prime_rehash_policyENSA_17_Hashtable_traitsILb1ELb0ELb1EEEE21_M_deallocate_bucketsEPPNSA_15_Hash_node_baseEm
FNDA:4,_ZNSt10_HashtableINSt7__cxx1112basic_stringIcSt11char_traitsIcESaIcEEESt4pairIKS5_S5_ESaIS8_ENSt8__detail10_Select1stESt8equal_toIS5_ESt4hashIS5_ENSA_18_Mod_range_hashingENSA_20_Default_ranged_hashENSA_20_Prime_rehash_policyENSA_17_Hashtable_traitsILb1ELb0ELb1EEEE21_M_deallocate_bucketsEPPNSA_15_Hash_node_baseEm
FN:453,_ZNSt10_HashtableINSt7__cxx1112basic_stringIcSt11char_traitsIcESaIcEEESt4pairIKS5_S5_ESaIS8_ENSt8__detail10_Select1stESt8equal_toIS5_ESt4hashIS5_ENSA_18_Mod_range_hashingENSA_20_Default_ranged_hashENSA_20_Prime_rehash_policyENSA_17_Hashtable_traitsILb1ELb0ELb1EEEE21_M_deallocate_bucketsEv
FNDA:4,_ZNSt10_HashtableINSt7__cxx1112basic_stringIcSt11char_traitsIcESaIcEEESt4pairIKS5_S5_ESaIS8_ENSt8__detail10_Select1stESt8equal_toIS5_ESt4hashIS5_ENSA_18_Mod_range_hashingENSA_20_Default_ranged_hashENSA_20_Prime_rehash_policyENSA_17_Hashtable_traitsILb1ELb0ELb1EEEE21_M_deallocate_bucketsEv
FN:462,_ZNKSt10_HashtableINSt7__cxx1112basic_stringIcSt11char_traitsIcESaIcEEESt4pairIKS5_S5_ESaIS8_ENSt8__detail10_Select1stESt8equal_toIS5_ESt4hashIS5_ENSA_18_Mod_range_hashingENSA_20_Default_ranged_hashENSA_20_Prime_rehash_policyENSA_17_Hashtable_traitsILb1ELb0ELb1EEEE8_M_beginEv
FNDA:10,_ZNKSt10_HashtableINSt7__cxx1112basic_stringIcSt11char_traitsIcESaIcEEESt4pairIKS5_S5_ESaIS8_ENSt8__detail10_Select1stESt8equal_toIS5_ESt4hashIS5_ENSA_18_Mod_range_hashingENSA_20_Default_ranged_hashENSA_20_Prime_rehash_policyENSA_17_Hashtable_traitsILb1ELb0ELb1EEEE8_M_beginEv
FN:528,_ZNSt10_HashtableINSt7__cxx1112basic_stringIcSt11char_traitsIcESaIcEEESt4pairIKS5_S5_ESaIS8_ENSt8__detail10_Select1stESt8equal_toIS5_ESt4hashIS5_ENSA_18_Mod_range_hashingENSA_20_Default_ranged_hashENSA_20_Prime_rehash_policyENSA_17_Hashtable_traitsILb1ELb0ELb1EEEEC2Ev
FNDA:2,_ZNSt10_HashtableINSt7__cxx1112basic_stringIcSt11char_traitsIcESaIcEEESt4pairIKS5_S5_ESaIS8_ENSt8__detail10_Select1stESt8equal_toIS5_ESt4hashIS5_ENSA_18_Mod_range_hashingENSA_20_Default_ranged_hashENSA_20_Prime_rehash_policyENSA_17_Hashtable_traitsILb1ELb0ELb1EEEEC2Ev
FN:629,_ZNSt10_HashtableINSt7__cxx1112basic_stringIcSt11char_traitsIcESaIcEEESt4pairIKS5_S5_ESaIS8_ENSt8__detail10_Select1stESt8equal_toIS5_ESt4hashIS5_ENSA_18_Mod_range_hashingENSA_20_Default_ranged_hashENSA_20_Prime_rehash_policyENSA_17_Hashtable_traitsILb1ELb0ELb1EEEE3endEv
FNDA:126,_ZNSt10_HashtableINSt7__cxx1112basic_stringIcSt11char_traitsIcESaIcEEESt4pairIKS5_S5_ESaIS8_ENSt8__detail10_Select1stESt8equal_toIS5_ESt4hashIS5_ENSA_18_Mod_range_hashingENSA_20_Default_ranged_hashENSA_20_Prime_rehash_policyENSA_17_Hashtable_traitsILb1ELb0ELb1EEEE3endEv
FN:790,_ZNKSt10_HashtableINSt7__cxx1112basic_stringIcSt11char_traitsIcESaIcEEESt4pairIKS5_S5_ESaIS8_ENSt8__detail10_Select1stESt8equal_toIS5_ESt4hashIS5_ENSA_18_Mod_range_hashingENSA_20_Default_ranged_hashENSA_20_Prime_rehash_policyENSA_17_Hashtable_traitsILb1ELb0ELb1EEEE15_M_bucket_indexERKNSA_16_Hash_node_valueIS8_Lb1EEE
FNDA:8,_ZNKSt10_HashtableINSt7__cxx1112basic_stringIcSt11char_traitsIcESaIcEEESt4pairIKS5_S5_ESaIS8_ENSt8__detail10_Select1stESt8equal_toIS5_ESt4hashIS5_ENSA_18_Mod_range_hashingENSA_20_Default_ranged_hashENSA_20_Prime_rehash_policyENSA_17_Hashtable_traitsILb1ELb0ELb1EEEE15_M_bucket_indexERKNSA_16_Hash_node_valueIS8_Lb1EEE
FN:794,_ZNKSt10_HashtableINSt7__cxx1112basic_stringIcSt11char_traitsIcESaIcEEESt4pairIKS5_S5_ESaIS8_ENSt8__detail10_Select1stESt8equal_toIS5_ESt4hashIS5_ENSA_18_Mod_range_hashingENSA_20_Default_ranged_hashENSA_20_Prime_rehash_policyENSA_17_Hashtable_traitsILb1ELb0ELb1EEEE15_M_bucket_indexEm
FNDA:244,_ZNKSt10_HashtableINSt7__cxx1112basic_stringIcSt11char_traitsIcESaIcEEESt4pairIKS5_S5_ESaIS8_ENSt8__detail10_Select1stESt8equal_toIS5_ESt4hashIS5_ENSA_18_Mod_range_hashingENSA_20_Default_ranged_hashENSA_20_Prime_rehash_policyENSA_17_Hashtable_traitsILb1ELb0ELb1EEEE15_M_bucket_indexEm
FN:807,_ZNKSt10_HashtableINSt7__cxx1112basic_stringIcSt11char_traitsIcESaIcEEESt4pairIKS5_S5_ESaIS8_ENSt8__detail10_Select1stESt8equal_toIS5_ESt4hashIS5_ENSA_18_Mod_range_hashingENSA_20_Default_ranged_hashENSA_20_Prime_rehash_policyENSA_17_Hashtable_traitsILb1ELb0ELb1EEEE12_M_find_nodeEmRS7_m
FNDA:242,_ZNKSt10_HashtableINSt7__cxx1112basic_stringIcSt11char_traitsIcESaIcEEESt4pairIKS5_S5_ESaIS8_ENSt8__detail10_Select1stESt8equal_toIS5_ESt4hashIS5_ENSA_18_Mod_range_hashingENSA_20_Default_ranged_hashENSA_20_Prime_rehash_policyENSA_17_Hashtable_traitsILb1ELb0ELb1EEEE12_M_find_nodeEmRS7_m
FN:1528,_ZNSt10_HashtableINSt7__cxx1112basic_stringIcSt11char_traitsIcESaIcEEESt4pairIKS5_S5_ESaIS8_ENSt8__detail10_Select1stESt8equal_toIS5_ESt4hashIS5_ENSA_18_Mod_range_hashingENSA_20_Default_ranged_hashENSA_20_Prime_rehash_policyENSA_17_Hashtable_traitsILb1ELb0ELb1EEEED2Ev
FNDA:2,_ZNSt10_HashtableINSt7__cxx1112basic_stringIcSt11char_traitsIcESaIcEEESt4pairIKS5_S5_ESaIS8_ENSt8__detail10_Select1stESt8equal_toIS5_ESt4hashIS5_ENSA_18_Mod_range_hashingENSA_20_Default_ranged_hashENSA_20_Prime_rehash_policyENSA_17_Hashtable_traitsILb1ELb0ELb1EEEED2Ev
FN:1588,_ZNSt10_HashtableINSt7__cxx1112basic_stringIcSt11char_traitsIcESaIcEEESt4pairIKS5_S5_ESaIS8_ENSt8__detail10_Select1stESt8equal_toIS5_ESt4hashIS5_ENSA_18_Mod_range_hashingENSA_20_Default_ranged_hashENSA_20_Prime_rehash_policyENSA_17_Hashtable_traitsILb1ELb0ELb1EEEE4findERS7_
FNDA:126,_ZNSt10_HashtableINSt7__cxx1112basic_stringIcSt11char_traitsIcESaIcEEESt4pairIKS5_S5_ESaIS8_ENSt8__detail10_Select1stESt8equal_toIS5_ESt4hashIS5_ENSA_18_Mod_range_hashingENSA_20_Default_ranged_hashENSA_20_Prime_rehash_policyENSA_17_Hashtable_traitsILb1ELb0ELb1EEEE4findERS7_
FN:1827,_ZNKSt10_HashtableINSt7__cxx1112basic_stringIcSt11char_traitsIcESaIcEEESt4pairIKS5_S5_ESaIS8_ENSt8__detail10_Select1stESt8equal_toIS5_ESt4hashIS5_ENSA_18_Mod_range_hashingENSA_20_Default_ranged_hashENSA_20_Prime_rehash_policyENSA_17_Hashtable_traitsILb1ELb0ELb1EEEE19_M_find_before_nodeEmRS7_m
FNDA:242,_ZNKSt10_HashtableINSt7__cxx1112basic_stringIcSt11char_traitsIcESaIcEEESt4pairIKS5_S5_ESaIS8_ENSt8__detail10_Select1stESt8equal_toIS5_ESt4hashIS5_ENSA_18_Mod_range_hashingENSA_20_Default_ranged_hashENSA_20_Prime_rehash_policyENSA_17_Hashtable_traitsILb1ELb0ELb1EEEE19_M_find_before_nodeEmRS7_m
FN:1886,_ZNSt10_HashtableINSt7__cxx1112basic_stringIcSt11char_traitsIcESaIcEEESt4pairIKS5_S5_ESaIS8_ENSt8__detail10_Select1stESt8equal_toIS5_ESt4hashIS5_ENSA_18_Mod_range_hashingENSA_20_Default_ranged_hashENSA_20_Prime_rehash_policyENSA_17_Hashtable_traitsILb1ELb0ELb1EEEE22_M_insert_bucket_beginEmPNSA_10_Hash_nodeIS8_Lb1EEE
FNDA:16,_ZNSt10_HashtableINSt7__cxx1112basic_stringIcSt11char_traitsIcESaIcEEESt4pairIKS5_S5_ESaIS8_ENSt8__detail10_Select1stESt8equal_toIS5_ESt4hashIS5_ENSA_18_Mod_range_hashingENSA_20_Default_ranged_hashENSA_20_Prime_rehash_policyENSA_17_Hashtable_traitsILb1ELb0ELb1EEEE22_M_insert_bucket_beginEmPNSA_10_Hash_nodeIS8_Lb1EEE
FN:2008,_ZNSt10_HashtableINSt7__cxx1112basic_stringIcSt11char_traitsIcESaIcEEESt4pairIKS5_S5_ESaIS8_ENSt8__detail10_Select1stESt8equal_toIS5_ESt4hashIS5_ENSA_18_Mod_range_hashingENSA_20_Default_ranged_hashENSA_20_Prime_rehash_policyENSA_17_Hashtable_traitsILb1ELb0ELb1EEEE21_M_insert_unique_nodeEmmPNSA_10_Hash_nodeIS8_Lb1EEEm
FNDA:16,_ZNSt10_HashtableINSt7__cxx1112basic_stringIcSt11char_traitsIcESaIcEEESt4pairIKS5_S5_ESaIS8_ENSt8__detail10_Select1stESt8equal_toIS5_ESt4hashIS5_ENSA_18_Mod_range_hashingENSA_20_Default_ranged_hashENSA_20_Prime_rehash_policyENSA_17_Hashtable_traitsILb1ELb0ELb1EEEE21_M_insert_unique_nodeEmmPNSA_10_Hash_nodeIS8_Lb1EEEm
FN:2316,_ZNSt10_HashtableINSt7__cxx1112basic_stringIcSt11char_traitsIcESaIcEEESt4pairIKS5_S5_ESaIS8_ENSt8__detail10_Select1stESt8equal_toIS5_ESt4hashIS5_ENSA_18_Mod_range_hashingENSA_20_Default_ranged_hashENSA_20_Prime_rehash_policyENSA_17_Hashtable_traitsILb1ELb0ELb1EEEE5clearEv
FNDA:8,_ZNSt10_HashtableINSt7__cxx1112basic_stringIcSt11char_traitsIcESaIcEEESt4pairIKS5_S5_ESaIS8_ENSt8__detail10_Select1stESt8equal_toIS5_ESt4hashIS5_ENSA_18_Mod_range_hashingENSA_20_Default_ranged_hashENSA_20_Prime_rehash_policyENSA_17_Hashtable_traitsILb1ELb0ELb1EEEE5clearEv
FN:2355,_ZNSt10_HashtableINSt7__cxx1112basic_stringIcSt11char_traitsIcESaIcEEESt4pairIKS5_S5_ESaIS8_ENSt8__detail10_Select1stESt8equal_toIS5_ESt4hashIS5_ENSA_18_Mod_range_hashingENSA_20_Default_ranged_hashENSA_20_Prime_rehash_policyENSA_17_Hashtable_traitsILb1ELb0ELb1EEEE9_M_rehashEmRKm
FNDA:2,_ZNSt10_HashtableINSt7__cxx1112basic_stringIcSt11char_traitsIcESaIcEEESt4pairIKS5_S5_ESaIS8_ENSt8__detail10_Select1stESt8equal_toIS5_ESt4hashIS5_ENSA_18_Mod_range_hashingENSA_20_Default_ranged_hashENSA_20_Prime_rehash_policyENSA_17_Hashtable_traitsILb1ELb0ELb1EEEE9_M_rehashEmRKm
FN:2378,_ZNSt10_HashtableINSt7__cxx1112basic_stringIcSt11char_traitsIcESaIcEEESt4pairIKS5_S5_ESaIS8_ENSt8__detail10_Select1stESt8equal_toIS5_ESt4hashIS5_ENSA_18_Mod_range_hashingENSA_20_Default_ranged_hashENSA_20_Prime_rehash_policyENSA_17_Hashtable_traitsILb1ELb0ELb1EEEE13_M_rehash_auxEmSt17integral_constantIbLb1EE
FNDA:2,_ZNSt10_HashtableINSt7__cxx1112basic_stringIcSt11char_traitsIcESaIcEEESt4pairIKS5_S5_ESaIS8_ENSt8__detail10_Select1stESt8equal_toIS5_ESt4hashIS5_ENSA_18_Mod_range_hashingENSA_20_Default_ranged_hashENSA_20_Prime_rehash_policyENSA_17_Hashtable_traitsILb1ELb0ELb1EEEE13_M_rehash_auxEmSt17integral_constantIbLb1EE
DA:302,16
DA:303,16
DA:304,16
DA:305,16
DA:308,16
DA:421,4
DA:422,4
DA:432,2
DA:434,2
DA:436,0
DA:437,0
DA:440,2
DA:444,4
DA:446,4
DA:447,2
DA:449,2
DA:453,4
DA:454,4
DA:462,10
DA:463,10
DA:528,2
DA:629,126
DA:630,126
DA:790,8
DA:791,8
DA:794,244
DA:795,244
DA:807,242
DA:810,242
DA:811,242
DA:812,222
DA:813,20
DA:1528,2
DA:1532,2
DA:1533,2
DA:1534,2
DA:1588,126
DA:1593,126
DA:1594,126
DA:1595,126
DA:1827,242
DA:1833,242
DA:1834,242
DA:1835,20
DA:1837,222
DA:1838,0
DA:1840,222
DA:1841,222
DA:1843,0
DA:1844,0
DA:1845,0
DA:1848,0
DA:1886,16
DA:1890,16
DA:1894,0
DA:1895,0
DA:1902,16
DA:1903,16
DA:1905,16
DA:1908,8
DA:1910,16
DA:1912,16
DA:2008,16
DA:2014,16
DA:2016,16
DA:2019,16
DA:2021,2
DA:2022,2
DA:2025,16
DA:2028,16
DA:2029,16
DA:2030,16
DA:2316,8
DA:2320,8
DA:2321,8
DA:2322,8
DA:2323,8
DA:2324,8
DA:2325,8
DA:2355,2
DA:2361,2
DA:2363,0
DA:2367,0
DA:2368,0
DA:2370,2
DA:2378,2
DA:2382,2
DA:2383,2
DA:2384,2
DA:2385,2
DA:2386,2
DA:2388,0
DA:2390,0
DA:2391,0
DA:2393,0
DA:2394,0
DA:2395,0
DA:2396,0
DA:2397,0
DA:2398,0
DA:2402,0
DA:2403,0
DA:2406,0
DA:2409,2
DA:2410,2
DA:2411,2
DA:2412,2
end_of_record
SF:/usr/include/c++/11/bits/functional_hash.h
FN:196,_ZNSt10_Hash_impl4hashEPKvmm
FNDA:0,_ZNSt10_Hash_impl4hashEPKvmm
DA:196,0
DA:198,0
end_of_record
SF:/usr/include/c++/11/bits/stl_function.h
FN:369,_ZNKSt8equal_toINSt7__cxx1112basic_stringIcSt11char_traitsIcESaIcEEEEclERKS5_S8_
FNDA:0,_ZNKSt8equal_toINSt7__cxx1112basic_stringIcSt11char_traitsIcESaIcEEEEclERKS5_S8_
DA:369,0
DA:370,0
end_of_record
SF:/usr/include/c++/11/bits/stl_pair.h
end_of_record
SF:/usr/include/c++/11/bits/char_traits.h
FN:106,_ZN9__gnu_cxx11char_traitsIcE2eqERKcS3_
FNDA:0,_ZN9__gnu_cxx11char_traitsIcE2eqERKcS3_
FN:167,_ZN9__gnu_cxx11char_traitsIcE6lengthEPKc
FNDA:0,_ZN9__gnu_cxx11char_traitsIcE6lengthEPKc
FN:364,_ZNSt11char_traitsIcE2ltERKcS2_
FNDA:0,_ZNSt11char_traitsIcE2ltERKcS2_
FN:372,_ZNSt11char_traitsIcE7compareEPKcS2_m
FNDA:0,_ZNSt11char_traitsIcE7compareEPKcS2_m
FN:393,_ZNSt11char_traitsIcE6lengthEPKc
FNDA:0,_ZNSt11char_traitsIcE6lengthEPKc
FN:429,_ZNSt11char_traitsIcE4copyEPcPKcm
FNDA:0,_ZNSt11char_traitsIcE4copyEPcPKcm
DA:106,0
DA:107,0
DA:167,0
DA:170,0
DA:171,0
DA:172,0
DA:173,0
DA:290,0
DA:364,0
DA:367,0
DA:368,0
DA:372,0
DA:374,0
DA:375,0
DA:377,0
DA:379,0
DA:381,0
DA:382,0
DA:383,0
DA:384,0
DA:385,0
DA:386,0
DA:389,0
DA:393,0
DA:396,0
DA:397,0
DA:399,0
DA:429,0
DA:431,0
DA:432,0
DA:437,0
end_of_record
SF:/usr/include/c++/11/bits/move.h
FN:49,_ZSt11__addressofINSt8__detail10_Hash_nodeISt4pairIKNSt7__cxx1112basic_stringIcSt11char_traitsIcESaIcEEES8_ELb1EEEEPT_RSC_
FNDA:16,_ZSt11__addressofINSt8__detail10_Hash_nodeISt4pairIKNSt7__cxx1112basic_stringIcSt11char_traitsIcESaIcEEES8_ELb1EEEEPT_RSC_
FN:49,_ZSt11__addressofIPNSt8__detail15_Hash_node_baseEEPT_RS3_
FNDA:0,_ZSt11__addressofIPNSt8__detail15_Hash_node_baseEEPT_RS3_
FN:77,_ZSt7forwardIRKNSt7__cxx1112basic_stringIcSt11char_traitsIcESaIcEEEEOT_RNSt16remove_referenceIS8_E4typeE
FNDA:16,_ZSt7forwardIRKNSt7__cxx1112basic_stringIcSt11char_traitsIcESaIcEEEEOT_RNSt16remove_referenceIS8_E4typeE
FN:77,_ZSt7forwardIRKSt4pairIKNSt7__cxx1112basic_stringIcSt11char_traitsIcESaIcEEES6_EEOT_RNSt16remove_referenceISB_E4typeE
FNDA:222,_ZSt7forwardIRKSt4pairIKNSt7__cxx1112basic_stringIcSt11char_traitsIcESaIcEEES6_EEOT_RNSt16remove_referenceISB_E4typeE
FN:77,_ZSt7forwardISt5tupleIJEEEOT_RNSt16remove_referenceIS2_E4typeE
FNDA:64,_ZSt7forwardISt5tupleIJEEEOT_RNSt16remove_referenceIS2_E4typeE
FN:77,_ZSt7forwardISt5tupleIJRKNSt7__cxx1112basic_stringIcSt11char_traitsIcESaIcEEEEEEOT_RNSt16remove_referenceISA_E4typeE
FNDA:64,_ZSt7forwardISt5tupleIJRKNSt7__cxx1112basic_stringIcSt11char_traitsIcESaIcEEEEEEOT_RNSt16remove_referenceISA_E4typeE
FN:77,_ZSt7forwardIRKSt21piecewise_construct_tEOT_RNSt16remove_referenceIS3_E4typeE
FNDA:64,_ZSt7forwardIRKSt21piecewise_construct_tEOT_RNSt16remove_referenceIS3_E4typeE
FN:104,_ZSt4moveIRNSt7__cxx1112basic_stringIcSt11char_traitsIcESaIcEEEEONSt16remove_referenceIT_E4typeEOS8_
FNDA:0,_ZSt4moveIRNSt7__cxx1112basic_stringIcSt11char_traitsIcESaIcEEEEONSt16remove_referenceIT_E4typeEOS8_
FN:104,_ZSt4moveIRSaIcEEONSt16remove_referenceIT_E4typeEOS3_
FNDA:0,_ZSt4moveIRSaIcEEONSt16remove_referenceIT_E4typeEOS3_
FN:145,_ZSt9addressofINSt8__detail10_Hash_nodeISt4pairIKNSt7__cxx1112basic_stringIcSt11char_traitsIcESaIcEEES8_ELb1EEEEPT_RSC_
FNDA:16,_ZSt9addressofINSt8__detail10_Hash_nodeISt4pairIKNSt7__cxx1112basic_stringIcSt11char_traitsIcESaIcEEES8_ELb1EEEEPT_RSC_
FN:145,_ZSt9addressofIPNSt8__detail15_Hash_node_baseEEPT_RS3_
FNDA:0,_ZSt9addressofIPNSt8__detail15_Hash_node_baseEEPT_RS3_
DA:49,16
DA:50,16
DA:49,0
DA:50,0
DA:77,16
DA:78,16
DA:77,222
DA:78,222
DA:77,64
DA:78,64
DA:77,64
DA:78,64
DA:77,64
DA:78,64
DA:104,0
DA:105,0
DA:104,0
DA:105,0
DA:145,16
DA:146,16
DA:145,0
DA:146,0
end_of_record
SF:/usr/include/c++/11/bits/stl_iterator_base_types.h
FN:238,_ZSt19__iterator_categoryIPcENSt15iterator_traitsIT_E17iterator_categoryERKS2_
FNDA:0,_ZSt19__iterator_categoryIPcENSt15iterator_traitsIT_E17iterator_categoryERKS2_
FN:238,_ZSt19__iterator_categoryIPKcENSt15iterator_traitsIT_E17iterator_categoryERKS3_
FNDA:0,_ZSt19__iterator_categoryIPKcENSt15iterator_traitsIT_E17iterator_categoryERKS3_
DA:238,0
DA:239,0
DA:238,0
DA:239,0
end_of_record
SF:/usr/include/c++/11/bits/ptr_traits.h
FN:149,_ZNSt14pointer_traitsIPNSt8__detail10_Hash_nodeISt4pairIKNSt7__cxx1112basic_stringIcSt11char_traitsIcESaIcEEES8_ELb1EEEE10pointer_toERSB_
FNDA:16,_ZNSt14pointer_traitsIPNSt8__detail10_Hash_nodeISt4pairIKNSt7__cxx1112basic_stringIcSt11char_traitsIcESaIcEEES8_ELb1EEEE10pointer_toERSB_
FN:149,_ZNSt14pointer_traitsIPPNSt8__detail15_Hash_node_baseEE10pointer_toERS2_
FNDA:0,_ZNSt14pointer_traitsIPPNSt8__detail15_Hash_node_baseEE10pointer_toERS2_
FN:159,_ZSt12__to_addressIPNSt8__detail15_Hash_node_baseEEPT_S4_
FNDA:0,_ZSt12__to_addressIPNSt8__detail15_Hash_node_baseEEPT_S4_
FN:159,_ZSt12__to_addressINSt8__detail10_Hash_nodeISt4pairIKNSt7__cxx1112basic_stringIcSt11char_traitsIcESaIcEEES8_ELb1EEEEPT_SD_
FNDA:16,_ZSt12__to_addressINSt8__detail10_Hash_nodeISt4pairIKNSt7__cxx1112basic_stringIcSt11char_traitsIcESaIcEEES8_ELb1EEEEPT_SD_
DA:149,16
DA:150,16
DA:149,0
DA:150,0
DA:159,0
DA:162,0
DA:159,16
DA:162,16
end_of_record
SF:/usr/include/c++/11/bits/basic_string.tcc
FN:206,_ZNSt7__cxx1112basic_stringIcSt11char_traitsIcESaIcEE12_M_constructIPcEEvT_S7_St20forward_iterator_tag
FNDA:0,_ZNSt7__cxx1112basic_stringIcSt11char_traitsIcESaIcEE12_M_constructIPcEEvT_S7_St20forward_iterator_tag
FN:206,_ZNSt7__cxx1112basic_stringIcSt11char_traitsIcESaIcEE12_M_constructIPKcEEvT_S8_St20forward_iterator_tag
FNDA:0,_ZNSt7__cxx1112basic_stringIcSt11char_traitsIcESaIcEE12_M_constructIPKcEEvT_S8_St20forward_iterator_tag
FN:1169,_ZStplIcSt11char_traitsIcESaIcEENSt7__cxx1112basic_stringIT_T0_T1_EEPKS5_RKS8_
FNDA:56,_ZStplIcSt11char_traitsIcESaIcEENSt7__cxx1112basic_stringIT_T0_T1_EEPKS5_RKS8_
DA:206,0
DA:211,0
DA:212,0
DA:215,0
DA:217,0
DA:219,0
DA:220,0
DA:225,0
DA:226,0
DA:228,0
DA:229,0
DA:232,0
DA:233,0
DA:206,0
DA:211,0
DA:212,0
DA:215,0
DA:217,0
DA:219,0
DA:220,0
DA:225,0
DA:226,0
DA:228,0
DA:229,0
DA:232,0
DA:233,0
DA:1169,56
DA:1178,56
DA:1179,112
DA:1181,56
DA:1182,56
DA:1183,56
DA:1184,56
DA:1185,0
end_of_record
SF:/usr/include/c++/11/bits/basic_string.h
FN:251,_ZNSt7__cxx1112basic_stringIcSt11char_traitsIcESaIcEE16_M_construct_auxIPcEEvT_S7_St12__false_type
FNDA:0,_ZNSt7__cxx1112basic_stringIcSt11char_traitsIcESaIcEE16_M_construct_auxIPcEEvT_S7_St12__false_type
FN:271,_ZNSt7__cxx1112basic_stringIcSt11char_traitsIcESaIcEE12_M_constructIPcEEvT_S7_
FNDA:0,_ZNSt7__cxx1112basic_stringIcSt11char_traitsIcESaIcEE12_M_constructIPcEEvT_S7_
FN:533,_ZNSt7__cxx1112basic_stringIcSt11char_traitsIcESaIcEEC2IS3_EEPKcRKS3_
FNDA:0,_ZNSt7__cxx1112basic_stringIcSt11char_traitsIcESaIcEEC2IS3_EEPKcRKS3_
FN:6206,_ZStplIcSt11char_traitsIcESaIcEENSt7__cxx1112basic_stringIT_T0_T1_EEOS8_PKS5_
FNDA:0,_ZStplIcSt11char_traitsIcESaIcEENSt7__cxx1112basic_stringIT_T0_T1_EEOS8_PKS5_
FN:6234,_ZSteqIcEN9__gnu_cxx11__enable_ifIXsrSt9__is_charIT_E7__valueEbE6__typeERKNSt7__cxx1112basic_stringIS3_St11char_traitsIS3_ESaIS3_EEESE_
FNDA:0,_ZSteqIcEN9__gnu_cxx11__enable_ifIXsrSt9__is_charIT_E7__valueEbE6__typeERKNSt7__cxx1112basic_stringIS3_St11char_traitsIS3_ESaIS3_EEESE_
FN:6289,_ZSteqIcSt11char_traitsIcESaIcEEbPKT_RKNSt7__cxx1112basic_stringIS3_T0_T1_EE
FNDA:200,_ZSteqIcSt11char_traitsIcESaIcEEbPKT_RKNSt7__cxx1112basic_stringIS3_T0_T1_EE
FN:6315,_ZStneIcSt11char_traitsIcESaIcEEbPKT_RKNSt7__cxx1112basic_stringIS3_T0_T1_EE
FNDA:186,_ZStneIcSt11char_traitsIcESaIcEEbPKT_RKNSt7__cxx1112basic_stringIS3_T0_T1_EE
FN:6875,_ZNKSt4hashINSt7__cxx1112basic_stringIcSt11char_traitsIcESaIcEEEEclERKS5_
FNDA:0,_ZNKSt4hashINSt7__cxx1112basic_stringIcSt11char_traitsIcESaIcEEEEclERKS5_
DA:251,0
DA:255,0
DA:256,0
DA:271,0
DA:274,0
DA:275,0
DA:533,0
DA:534,0
DA:536,0
DA:539,0
DA:540,0
DA:6206,0
DA:6208,0
DA:6234,0
DA:6236,0
DA:6237,0
DA:6238,0
DA:6289,200
DA:6291,200
DA:6315,186
DA:6317,186
DA:6875,0
DA:6876,0
end_of_record
SF:/usr/include/c++/11/bits/stl_iterator_base_funcs.h
FN:98,_ZSt10__distanceIPcENSt15iterator_traitsIT_E15difference_typeES2_S2_St26random_access_iterator_tag
FNDA:0,_ZSt10__distanceIPcENSt15iterator_traitsIT_E15difference_typeES2_S2_St26random_access_iterator_tag
FN:98,_ZSt10__distanceIPKcENSt15iterator_traitsIT_E15difference_typeES3_S3_St26random_access_iterator_tag
FNDA:0,_ZSt10__distanceIPKcENSt15iterator_traitsIT_E15difference_typeES3_S3_St26random_access_iterator_tag
FN:138,_ZSt8distanceIPcENSt15iterator_traitsIT_E15difference_typeES2_S2_
FNDA:0,_ZSt8distanceIPcENSt15iterator_traitsIT_E15difference_typeES2_S2_
FN:138,_ZSt8distanceIPKcENSt15iterator_traitsIT_E15difference_typeES3_S3_
FNDA:0,_ZSt8distanceIPKcENSt15iterator_traitsIT_E15difference_typeES3_S3_
DA:98,0
DA:104,0
DA:98,0
DA:104,0
DA:138,0
DA:141,0
DA:142,0
DA:138,0
DA:141,0
DA:142,0
end_of_record
SF:/home/hksong/hksong/prjs/myftpserver/src/user_info.cpp
FN:15,_ZN11MyFtpServer9User_InfoC2Ev
FNDA:58,_ZN11MyFtpServer9User_InfoC2Ev
FN:17,_ZN11MyFtpServer9User_Info5loginEv
FNDA:56,_ZN11MyFtpServer9User_Info5loginEv
FN:22,_ZN11MyFtpServer9User_Info6logoutEv
FNDA:54,_ZN11MyFtpServer9User_Info6logoutEv
FN:27,_ZN11MyFtpServer9User_Info15get_current_dirB5cxx11Ev
FNDA:20,_ZN11MyFtpServer9User_Info15get_current_dirB5cxx11Ev
FN:31,_ZN11MyFtpServer9User_Info15set_current_dirENSt7__cxx1112basic_stringIcSt11char_traitsIcESaIcEEE
FNDA:2,_ZN11MyFtpServer9User_Info15set_current_dirENSt7__cxx1112basic_stringIcSt11char_traitsIcESaIcEEE
FN:36,_ZN11MyFtpServer9User_Info12set_usernameENSt7__cxx1112basic_stringIcSt11char_traitsIcESaIcEEE
FNDA:60,_ZN11MyFtpServer9User_Info12set_usernameENSt7__cxx1112basic_stringIcSt11char_traitsIcESaIcEEE
FN:44,_ZN11MyFtpServer9User_Info12get_usernameB5cxx11Ev
FNDA:58,_ZN11MyFtpServer9User_Info12get_usernameB5cxx11Ev
FN:48,_ZN11MyFtpServer9User_Info14init_users_mapEv
FNDA:58,_ZN11MyFtpServer9User_Info14init_users_mapEv
FN:62,_ZN11MyFtpServer9User_Info15clear_users_mapEv
FNDA:6,_ZN11MyFtpServer9User_Info15clear_users_mapEv
FN:66,_ZN11MyFtpServer9User_Info14check_usernameENSt7__cxx1112basic_stringIcSt11char_traitsIcESaIcEEE
FNDA:62,_ZN11MyFtpServer9User_Info14check_usernameENSt7__cxx1112basic_stringIcSt11char_traitsIcESaIcEEE
FN:76,_ZN11MyFtpServer9User_Info10check_userENSt7__cxx1112basic_stringIcSt11char_traitsIcESaIcEEES6_
FNDA:64,_ZN11MyFtpServer9User_Info10check_userENSt7__cxx1112basic_stringIcSt11char_traitsIcESaIcEEES6_
DA:15,58
DA:17,56
DA:18,56
DA:19,56
DA:21,56
DA:22,54
DA:23,54
DA:24,54
DA:25,54
DA:26,54
DA:27,20
DA:28,20
DA:31,2
DA:32,2
DA:33,2
DA:36,60
DA:37,60
DA:38,60
DA:39,60
DA:41,0
DA:44,58
DA:45,58
DA:48,58
DA:49,58
DA:50,58
DA:51,0
DA:52,0
DA:54,58
DA:55,174
DA:56,116
DA:58,58
DA:59,58
DA:60,58
DA:62,6
DA:63,6
DA:64,6
DA:66,62
DA:67,62
DA:68,62
DA:69,62
DA:70,60
DA:73,2
DA:76,64
DA:77,64
DA:78,64
DA:79,64
DA:81,62
DA:82,62
DA:85,4
DA:89,2
end_of_record
SF:/usr/include/c++/11/ext/alloc_traits.h
FN:97,_ZN9__gnu_cxx14__alloc_traitsISaIcEcE17_S_select_on_copyERKS1_
FNDA:56,_ZN9__gnu_cxx14__alloc_traitsISaIcEcE17_S_select_on_copyERKS1_
DA:97,56
DA:98,56
end_of_record
SF:/usr/include/c++/11/ext/type_traits.h
FN:152,_ZN9__gnu_cxx17__is_null_pointerIcEEbPT_
FNDA:0,_ZN9__gnu_cxx17__is_null_pointerIcEEbPT_
FN:152,_ZN9__gnu_cxx17__is_null_pointerIKcEEbPT_
FNDA:0,_ZN9__gnu_cxx17__is_null_pointerIKcEEbPT_
DA:152,0
DA:153,0
DA:152,0
DA:153,0
end_of_record
SF:/usr/include/c++/11/bits/allocator.h
FN:156,_ZNSaINSt8__detail10_Hash_nodeISt4pairIKNSt7__cxx1112basic_stringIcSt11char_traitsIcESaIcEEES7_ELb1EEEEC2Ev
FNDA:2,_ZNSaINSt8__detail10_Hash_nodeISt4pairIKNSt7__cxx1112basic_stringIcSt11char_traitsIcESaIcEEES7_ELb1EEEEC2Ev
FN:169,_ZNSaIPNSt8__detail15_Hash_node_baseEEC2INS_10_Hash_nodeISt4pairIKNSt7__cxx1112basic_stringIcSt11char_traitsIcESaIcEEESB_ELb1EEEEERKSaIT_E
FNDA:4,_ZNSaIPNSt8__detail15_Hash_node_baseEEC2INS_10_Hash_nodeISt4pairIKNSt7__cxx1112basic_stringIcSt11char_traitsIcESaIcEEESB_ELb1EEEEERKSaIT_E
FN:174,_ZNSaIPNSt8__detail15_Hash_node_baseEED2Ev
FNDA:0,_ZNSaIPNSt8__detail15_Hash_node_baseEED2Ev
FN:174,_ZNSaINSt8__detail10_Hash_nodeISt4pairIKNSt7__cxx1112basic_stringIcSt11char_traitsIcESaIcEEES7_ELb1EEEED2Ev
FNDA:2,_ZNSaINSt8__detail10_Hash_nodeISt4pairIKNSt7__cxx1112basic_stringIcSt11char_traitsIcESaIcEEES7_ELb1EEEED2Ev
DA:156,2
DA:169,4
DA:174,0
DA:174,2
end_of_record
TN:
SF:/usr/include/ace/Base_Thread_Adapter.h
FN:54,_ZN24ACE_OS_Thread_DescriptorD0Ev
FNDA:0,_ZN24ACE_OS_Thread_DescriptorD0Ev
FN:54,_ZN24ACE_OS_Thread_DescriptorD2Ev
FNDA:0,_ZN24ACE_OS_Thread_DescriptorD2Ev
DA:54,0
DA:54,0
end_of_record
SF:/usr/include/ace/FILE_Addr.h
end_of_record
SF:/usr/include/c++/11/iostream
end_of_record
SF:/usr/include/c++/11/bits/move.h
FN:104,_ZSt4moveIRSaIcEEONSt16remove_referenceIT_E4typeEOS3_
FNDA:0,_ZSt4moveIRSaIcEEONSt16remove_referenceIT_E4typeEOS3_
DA:104,0
DA:105,0
end_of_record
SF:/usr/include/ace/FILE.h
end_of_record
SF:/usr/include/c++/11/bits/basic_string.h
end_of_record
SF:/usr/include/ace/OS_NS_unistd.inl
FN:1252,_ZN6ACE_OS5writeEiPKvm
FNDA:0,_ZN6ACE_OS5writeEiPKvm
DA:1252,0
DA:1271,0
end_of_record
SF:/usr/include/ace/IPC_SAP.inl
FN:7,_ZN11ACE_IPC_SAPD2Ev
FNDA:0,_ZN11ACE_IPC_SAPD2Ev
FN:13,_ZNK11ACE_IPC_SAP10get_handleEv
FNDA:0,_ZNK11ACE_IPC_SAP10get_handleEv
DA:7,0
DA:10,0
DA:13,0
DA:16,0
end_of_record
SF:/usr/include/ace/FILE_IO.inl
FN:72,_ZNK11ACE_FILE_IO4sendEPKvm
FNDA:0,_ZNK11ACE_FILE_IO4sendEPKvm
DA:72,0
DA:75,0
end_of_record
SF:/usr/include/ace/SOCK_Stream.inl
FN:8,_ZN15ACE_SOCK_StreamC2Ev
FNDA:0,_ZN15ACE_SOCK_StreamC2Ev
FN:21,_ZN15ACE_SOCK_StreamD2Ev
FNDA:0,_ZN15ACE_SOCK_StreamD2Ev
DA:8,0
DA:11,0
DA:21,0
DA:24,0
end_of_record
SF:/home/hksong/hksong/prjs/myftpserver/src/data_handler.cpp
FN:26,_ZN11MyFtpServer12Data_HandlerC2ERKNSt7__cxx1112basic_stringIcSt11char_traitsIcESaIcEEERKiSA_
FNDA:8,_ZN11MyFtpServer12Data_HandlerC2ERKNSt7__cxx1112basic_stringIcSt11char_traitsIcESaIcEEERKiSA_
FN:42,_ZN11MyFtpServer12Data_HandlerD0Ev
FNDA:10,_ZN11MyFtpServer12Data_HandlerD0Ev
FN:42,_ZN11MyFtpServer12Data_HandlerD2Ev
FNDA:10,_ZN11MyFtpServer12Data_HandlerD2Ev
FN:55,_ZN11MyFtpServer12Data_Handler14data_link_initEv
FNDA:2,_ZN11MyFtpServer12Data_Handler14data_link_initEv
FN:63,_ZN11MyFtpServer12Data_Handler14file_link_initEb
FNDA:4,_ZN11MyFtpServer12Data_Handler14file_link_initEb
FN:94,_ZN11MyFtpServer12Data_Handler9send_fileEv
FNDA:2,_ZN11MyFtpServer12Data_Handler9send_fileEv
FN:125,_ZN11MyFtpServer12Data_Handler9recv_fileEv
FNDA:0,_ZN11MyFtpServer12Data_Handler9recv_fileEv
DA:26,8
DA:27,8
DA:28,8
DA:29,8
DA:30,8
DA:32,8
DA:33,8
DA:35,0
DA:37,8
DA:38,8
DA:39,8
DA:40,8
DA:42,10
DA:54,10
DA:42,10
DA:44,10
DA:45,0
DA:46,10
DA:47,0
DA:48,10
DA:49,10
DA:50,2
DA:51,10
DA:52,10
DA:53,10
DA:54,10
DA:55,2
DA:56,2
DA:57,2
DA:58,2
DA:59,2
DA:61,0
DA:62,2
DA:63,4
DA:65,4
DA:66,4
DA:67,4
DA:68,2
DA:69,4
DA:78,2
DA:79,2
DA:81,0
DA:82,0
DA:85,4
DA:87,0
DA:88,0
DA:91,4
DA:94,2
DA:96,2
DA:97,0
DA:99,2
DA:101,2
DA:102,2
DA:104,0
DA:105,0
DA:106,0
DA:107,0
DA:110,0
DA:111,0
DA:112,0
DA:114,0
DA:115,0
DA:117,0
DA:119,0
DA:120,0
DA:121,0
DA:125,0
DA:127,0
DA:128,0
DA:129,0
DA:131,0
DA:132,0
DA:134,0
DA:136,0
DA:137,0
DA:138,0
DA:145,0
DA:148,0
DA:149,0
DA:151,0
DA:152,0
DA:154,0
DA:156,0
DA:157,0
DA:160,0
DA:161,0
DA:162,0
DA:164,0
end_of_record
SF:/usr/include/ace/FILE_IO.h
end_of_record
SF:/usr/include/ace/OS_NS_stdio.inl
FN:618,_ZN6ACE_OS5fopenEPKcS1_
FNDA:2,_ZN6ACE_OS5fopenEPKcS1_
DA:618,2
DA:621,2
end_of_record
SF:/usr/include/ace/IO_SAP.inl
FN:7,_ZN10ACE_IO_SAPD2Ev
FNDA:10,_ZN10ACE_IO_SAPD2Ev
FN:15,_ZNK10ACE_IO_SAP10get_handleEv
FNDA:2,_ZNK10ACE_IO_SAP10get_handleEv
DA:7,10
DA:10,10
DA:15,2
DA:18,2
end_of_record
SF:/usr/include/ace/SOCK_Connector.inl
FN:8,_ZN18ACE_SOCK_ConnectorD2Ev
FNDA:2,_ZN18ACE_SOCK_ConnectorD2Ev
FN:16,_ZN18ACE_SOCK_ConnectorC2Ev
FNDA:2,_ZN18ACE_SOCK_ConnectorC2Ev
DA:8,2
DA:11,2
DA:16,2
DA:19,2
end_of_record
SF:/usr/include/ace/Thread_Manager.inl
FN:72,_ZN26ACE_Thread_Descriptor_BaseD0Ev
FNDA:0,_ZN26ACE_Thread_Descriptor_BaseD0Ev
FN:72,_ZN26ACE_Thread_Descriptor_BaseD2Ev
FNDA:0,_ZN26ACE_Thread_Descriptor_BaseD2Ev
DA:72,0
DA:74,0
DA:72,0
DA:74,0
end_of_record
SF:/usr/include/c++/11/ext/new_allocator.h
FN:79,_ZN9__gnu_cxx13new_allocatorIcEC2Ev
FNDA:0,_ZN9__gnu_cxx13new_allocatorIcEC2Ev
FN:89,_ZN9__gnu_cxx13new_allocatorIcED2Ev
FNDA:0,_ZN9__gnu_cxx13new_allocatorIcED2Ev
DA:79,0
DA:89,0
end_of_record
SF:/usr/include/ace/SOCK_IO.inl
FN:9,_ZN11ACE_SOCK_IOC2Ev
FNDA:0,_ZN11ACE_SOCK_IOC2Ev
FN:15,_ZN11ACE_SOCK_IOD2Ev
FNDA:0,_ZN11ACE_SOCK_IOD2Ev
FN:35,_ZNK11ACE_SOCK_IO4recvEPvmPK14ACE_Time_Value
FNDA:0,_ZNK11ACE_SOCK_IO4recvEPvmPK14ACE_Time_Value
DA:9,0
DA:12,0
DA:15,0
DA:18,0
DA:35,0
DA:40,0
DA:43,0
end_of_record
SF:/usr/include/ace/SOCK.inl
FN:7,_ZN8ACE_SOCKD2Ev
FNDA:0,_ZN8ACE_SOCKD2Ev
DA:7,0
DA:10,0
end_of_record
TN:
SF:/usr/include/c++/11/ext/aligned_buffer.h
FN:64,_ZN9__gnu_cxx16__aligned_membufINSt7__cxx1112basic_stringIcSt11char_traitsIcESaIcEEEE7_M_addrEv
FNDA:868,_ZN9__gnu_cxx16__aligned_membufINSt7__cxx1112basic_stringIcSt11char_traitsIcESaIcEEEE7_M_addrEv
FN:72,_ZN9__gnu_cxx16__aligned_membufINSt7__cxx1112basic_stringIcSt11char_traitsIcESaIcEEEE6_M_ptrEv
FNDA:868,_ZN9__gnu_cxx16__aligned_membufINSt7__cxx1112basic_stringIcSt11char_traitsIcESaIcEEEE6_M_ptrEv
FN:102,_ZN9__gnu_cxx16__aligned_bufferIN11MyFtpServer9User_InfoEE7_M_addrEv
FNDA:156,_ZN9__gnu_cxx16__aligned_bufferIN11MyFtpServer9User_InfoEE7_M_addrEv
FN:102,_ZN9__gnu_cxx16__aligned_bufferISt4pairIKNSt7__cxx1112basic_stringIcSt11char_traitsIcESaIcEEEMN11MyFtpServer15Command_HandlerEFvRKNS9_9cmd_info_EEEE7_M_addrEv
FNDA:78,_ZN9__gnu_cxx16__aligned_bufferISt4pairIKNSt7__cxx1112basic_stringIcSt11char_traitsIcESaIcEEEMN11MyFtpServer15Command_HandlerEFvRKNS9_9cmd_info_EEEE7_M_addrEv
FN:108,_ZNK9__gnu_cxx16__aligned_bufferISt4pairIKNSt7__cxx1112basic_stringIcSt11char_traitsIcESaIcEEEMN11MyFtpServer15Command_HandlerEFvRKNS9_9cmd_info_EEEE7_M_addrEv
FNDA:2,_ZNK9__gnu_cxx16__aligned_bufferISt4pairIKNSt7__cxx1112basic_stringIcSt11char_traitsIcESaIcEEEMN11MyFtpServer15Command_HandlerEFvRKNS9_9cmd_info_EEEE7_M_addrEv
FN:114,_ZN9__gnu_cxx16__aligned_bufferIN11MyFtpServer9User_InfoEE6_M_ptrEv
FNDA:156,_ZN9__gnu_cxx16__aligned_bufferIN11MyFtpServer9User_InfoEE6_M_ptrEv
FN:114,_ZN9__gnu_cxx16__aligned_bufferISt4pairIKNSt7__cxx1112basic_stringIcSt11char_traitsIcESaIcEEEMN11MyFtpServer15Command_HandlerEFvRKNS9_9cmd_info_EEEE6_M_ptrEv
FNDA:78,_ZN9__gnu_cxx16__aligned_bufferISt4pairIKNSt7__cxx1112basic_stringIcSt11char_traitsIcESaIcEEEMN11MyFtpServer15Command_HandlerEFvRKNS9_9cmd_info_EEEE6_M_ptrEv
FN:118,_ZNK9__gnu_cxx16__aligned_bufferISt4pairIKNSt7__cxx1112basic_stringIcSt11char_traitsIcESaIcEEEMN11MyFtpServer15Command_HandlerEFvRKNS9_9cmd_info_EEEE6_M_ptrEv
FNDA:2,_ZNK9__gnu_cxx16__aligned_bufferISt4pairIKNSt7__cxx1112basic_stringIcSt11char_traitsIcESaIcEEEMN11MyFtpServer15Command_HandlerEFvRKNS9_9cmd_info_EEEE6_M_ptrEv
DA:64,868
DA:65,868
DA:72,868
DA:73,868
DA:102,156
DA:104,156
DA:102,78
DA:104,78
DA:108,2
DA:110,2
DA:114,156
DA:115,156
DA:114,78
DA:115,78
DA:118,2
DA:119,2
end_of_record
SF:/usr/include/ace/Thread_Mutex.inl
FN:54,_ZN16ACE_Thread_Mutex7acquireEv
FNDA:0,_ZN16ACE_Thread_Mutex7acquireEv
FN:82,_ZN16ACE_Thread_Mutex7releaseEv
FNDA:0,_ZN16ACE_Thread_Mutex7releaseEv
DA:54,0
DA:57,0
DA:82,0
DA:85,0
end_of_record
SF:/usr/include/ace/INET_Addr.inl
FN:81,_ZNK13ACE_INET_Addr15get_port_numberEv
FNDA:4,_ZNK13ACE_INET_Addr15get_port_numberEv
DA:81,4
DA:85,4
DA:86,4
DA:88,0
end_of_record
SF:/usr/include/c++/11/bits/enable_special_members.h
FN:67,_ZNSt27_Enable_default_constructorILb1ENSt8__detail15_Hash_node_baseEEC2ESt31_Enable_default_constructor_tag
FNDA:2,_ZNSt27_Enable_default_constructorILb1ENSt8__detail15_Hash_node_baseEEC2ESt31_Enable_default_constructor_tag
DA:67,2
end_of_record
SF:/usr/include/c++/11/utility
FN:188,_ZNSt10__pair_getILm0EE11__const_getIKNSt7__cxx1112basic_stringIcSt11char_traitsIcESaIcEEEMN11MyFtpServer15Command_HandlerEFvRKNS9_9cmd_info_EEEERKT_RKSt4pairISG_T0_E
FNDA:40,_ZNSt10__pair_getILm0EE11__const_getIKNSt7__cxx1112basic_stringIcSt11char_traitsIcESaIcEEEMN11MyFtpServer15Command_HandlerEFvRKNS9_9cmd_info_EEEERKT_RKSt4pairISG_T0_E
FN:233,_ZSt3getILm0EKNSt7__cxx1112basic_stringIcSt11char_traitsIcESaIcEEEMN11MyFtpServer15Command_HandlerEFvRKNS7_9cmd_info_EEERKNSt13tuple_elementIXT_ESt4pairIT0_T1_EE4typeERKSI_
FNDA:40,_ZSt3getILm0EKNSt7__cxx1112basic_stringIcSt11char_traitsIcESaIcEEEMN11MyFtpServer15Command_HandlerEFvRKNS7_9cmd_info_EEERKNSt13tuple_elementIXT_ESt4pairIT0_T1_EE4typeERKSI_
DA:188,40
DA:189,40
DA:233,40
DA:234,40
end_of_record
SF:/usr/include/ace/Thread_Manager.inl
FN:72,_ZN26ACE_Thread_Descriptor_BaseD0Ev
FNDA:0,_ZN26ACE_Thread_Descriptor_BaseD0Ev
FN:72,_ZN26ACE_Thread_Descriptor_BaseD2Ev
FNDA:0,_ZN26ACE_Thread_Descriptor_BaseD2Ev
DA:72,0
DA:74,0
DA:72,0
DA:74,0
end_of_record
SF:/usr/include/ace/Numeric_Limits.h
FN:64,_ZN18ACE_Numeric_LimitsIiE3maxEv
FNDA:0,_ZN18ACE_Numeric_LimitsIiE3maxEv
DA:64,0
end_of_record
SF:/usr/include/ace/Truncate.h
FN:308,_ZN9ACE_Utils15Fast_ComparatorImmE12greater_thanEmm
FNDA:0,_ZN9ACE_Utils15Fast_ComparatorImmE12greater_thanEmm
FN:393,_ZN9ACE_Utils9TruncatorImiEclEm
FNDA:0,_ZN9ACE_Utils9TruncatorImiEclEm
FN:449,_ZN9ACE_Utils13truncate_castIimEET_T0_
FNDA:0,_ZN9ACE_Utils13truncate_castIimEET_T0_
DA:308,0
DA:313,0
DA:393,0
DA:396,0
DA:397,0
DA:398,0
DA:449,0
DA:459,0
end_of_record
SF:/usr/include/ace/OS_NS_unistd.inl
FN:158,_ZN6ACE_OS5rmdirEPKc
FNDA:2,_ZN6ACE_OS5rmdirEPKc
DA:158,2
DA:167,2
end_of_record
SF:/usr/include/ace/SOCK_Stream.inl
FN:8,_ZN15ACE_SOCK_StreamC2Ev
FNDA:62,_ZN15ACE_SOCK_StreamC2Ev
FN:21,_ZN15ACE_SOCK_StreamD2Ev
FNDA:62,_ZN15ACE_SOCK_StreamD2Ev
DA:8,62
DA:11,62
DA:21,62
DA:24,62
end_of_record
SF:/usr/include/c++/11/bits/char_traits.h
FN:106,_ZN9__gnu_cxx11char_traitsIcE2eqERKcS3_
FNDA:0,_ZN9__gnu_cxx11char_traitsIcE2eqERKcS3_
FN:167,_ZN9__gnu_cxx11char_traitsIcE6lengthEPKc
FNDA:0,_ZN9__gnu_cxx11char_traitsIcE6lengthEPKc
FN:364,_ZNSt11char_traitsIcE2ltERKcS2_
FNDA:0,_ZNSt11char_traitsIcE2ltERKcS2_
FN:372,_ZNSt11char_traitsIcE7compareEPKcS2_m
FNDA:286,_ZNSt11char_traitsIcE7compareEPKcS2_m
FN:393,_ZNSt11char_traitsIcE6lengthEPKc
FNDA:782,_ZNSt11char_traitsIcE6lengthEPKc
FN:429,_ZNSt11char_traitsIcE4copyEPcPKcm
FNDA:0,_ZNSt11char_traitsIcE4copyEPcPKcm
DA:106,0
DA:107,0
DA:167,0
DA:170,0
DA:171,0
DA:172,0
DA:173,0
DA:290,782
DA:364,0
DA:367,0
DA:368,0
DA:372,286
DA:374,286
DA:375,0
DA:377,286
DA:379,286
DA:381,0
DA:382,0
DA:383,0
DA:384,0
DA:385,0
DA:386,0
DA:389,286
DA:393,782
DA:396,782
DA:397,0
DA:399,782
DA:429,0
DA:431,0
DA:432,0
DA:437,0
end_of_record
SF:/usr/include/c++/11/iostream
end_of_record
SF:/home/hksong/hksong/prjs/myftpserver/include/task_manager.h
end_of_record
SF:/usr/include/c++/11/bits/basic_string.h
FN:251,_ZNSt7__cxx1112basic_stringIcSt11char_traitsIcESaIcEE16_M_construct_auxIPcEEvT_S7_St12__false_type
FNDA:0,_ZNSt7__cxx1112basic_stringIcSt11char_traitsIcESaIcEE16_M_construct_auxIPcEEvT_S7_St12__false_type
FN:251,_ZNSt7__cxx1112basic_stringIcSt11char_traitsIcESaIcEE16_M_construct_auxIPKcEEvT_S8_St12__false_type
FNDA:0,_ZNSt7__cxx1112basic_stringIcSt11char_traitsIcESaIcEE16_M_construct_auxIPKcEEvT_S8_St12__false_type
FN:271,_ZNSt7__cxx1112basic_stringIcSt11char_traitsIcESaIcEE12_M_constructIPcEEvT_S7_
FNDA:0,_ZNSt7__cxx1112basic_stringIcSt11char_traitsIcESaIcEE12_M_constructIPcEEvT_S7_
FN:271,_ZNSt7__cxx1112basic_stringIcSt11char_traitsIcESaIcEE12_M_constructIPKcEEvT_S8_
FNDA:0,_ZNSt7__cxx1112basic_stringIcSt11char_traitsIcESaIcEE12_M_constructIPKcEEvT_S8_
FN:533,_ZNSt7__cxx1112basic_stringIcSt11char_traitsIcESaIcEEC2IS3_EEPKcRKS3_
FNDA:726,_ZNSt7__cxx1112basic_stringIcSt11char_traitsIcESaIcEEC2IS3_EEPKcRKS3_
FN:553,_ZNSt7__cxx1112basic_stringIcSt11char_traitsIcESaIcEEC2IS3_EEmcRKS3_
FNDA:2,_ZNSt7__cxx1112basic_stringIcSt11char_traitsIcESaIcEEC2IS3_EEmcRKS3_
FN:6095,_ZStplIcSt11char_traitsIcESaIcEENSt7__cxx1112basic_stringIT_T0_T1_EERKS8_SA_
FNDA:16,_ZStplIcSt11char_traitsIcESaIcEENSt7__cxx1112basic_stringIT_T0_T1_EERKS8_SA_
FN:6194,_ZStplIcSt11char_traitsIcESaIcEENSt7__cxx1112basic_stringIT_T0_T1_EEPKS5_OS8_
FNDA:8,_ZStplIcSt11char_traitsIcESaIcEENSt7__cxx1112basic_stringIT_T0_T1_EEPKS5_OS8_
FN:6206,_ZStplIcSt11char_traitsIcESaIcEENSt7__cxx1112basic_stringIT_T0_T1_EEOS8_PKS5_
FNDA:136,_ZStplIcSt11char_traitsIcESaIcEENSt7__cxx1112basic_stringIT_T0_T1_EEOS8_PKS5_
FN:6234,_ZSteqIcEN9__gnu_cxx11__enable_ifIXsrSt9__is_charIT_E7__valueEbE6__typeERKNSt7__cxx1112basic_stringIS3_St11char_traitsIS3_ESaIS3_EEESE_
FNDA:290,_ZSteqIcEN9__gnu_cxx11__enable_ifIXsrSt9__is_charIT_E7__valueEbE6__typeERKNSt7__cxx1112basic_stringIS3_St11char_traitsIS3_ESaIS3_EEESE_
FN:6679,_ZNSt7__cxx119to_stringEl
FNDA:2,_ZNSt7__cxx119to_stringEl
FN:6875,_ZNKSt4hashINSt7__cxx1112basic_stringIcSt11char_traitsIcESaIcEEEEclERKS5_
FNDA:284,_ZNKSt4hashINSt7__cxx1112basic_stringIcSt11char_traitsIcESaIcEEEEclERKS5_
DA:251,0
DA:255,0
DA:256,0
DA:251,0
DA:255,0
DA:256,0
DA:271,0
DA:274,0
DA:275,0
DA:271,0
DA:274,0
DA:275,0
DA:533,726
DA:534,726
DA:536,726
DA:539,726
DA:540,726
DA:553,2
DA:554,2
DA:555,2
DA:6095,16
DA:6098,16
DA:6099,16
DA:6100,16
DA:6101,0
DA:6194,8
DA:6196,8
DA:6206,136
DA:6208,136
DA:6234,290
DA:6236,290
DA:6237,290
DA:6238,290
DA:6679,2
DA:6681,2
DA:6682,2
DA:6683,2
DA:6684,2
DA:6685,2
DA:6686,2
DA:6687,0
DA:6875,284
DA:6876,284
end_of_record
SF:/usr/include/c++/11/bits/basic_string.tcc
FN:206,_ZNSt7__cxx1112basic_stringIcSt11char_traitsIcESaIcEE12_M_constructIPcEEvT_S7_St20forward_iterator_tag
FNDA:0,_ZNSt7__cxx1112basic_stringIcSt11char_traitsIcESaIcEE12_M_constructIPcEEvT_S7_St20forward_iterator_tag
FN:206,_ZNSt7__cxx1112basic_stringIcSt11char_traitsIcESaIcEE12_M_constructIPKcEEvT_S8_St20forward_iterator_tag
FNDA:736,_ZNSt7__cxx1112basic_stringIcSt11char_traitsIcESaIcEE12_M_constructIPKcEEvT_S8_St20forward_iterator_tag
DA:206,0
DA:211,0
DA:212,0
DA:215,0
DA:217,0
DA:219,0
DA:220,0
DA:225,0
DA:226,0
DA:228,0
DA:229,0
DA:232,0
DA:233,0
DA:206,736
DA:211,736
DA:212,0
DA:215,736
DA:217,736
DA:219,234
DA:220,234
DA:225,736
DA:226,0
DA:228,0
DA:229,0
DA:232,736
DA:233,736
end_of_record
SF:/usr/include/c++/11/ext/atomicity.h
DA:52,104
DA:66,0
DA:84,104
DA:85,104
DA:86,104
DA:98,104
DA:99,104
DA:101,0
end_of_record
SF:/usr/include/c++/11/bits/stl_list.h
FN:110,_ZNSt8__detail17_List_node_headerC2Ev
FNDA:54,_ZNSt8__detail17_List_node_headerC2Ev
FN:150,_ZNSt8__detail17_List_node_header7_M_initEv
FNDA:54,_ZNSt8__detail17_List_node_header7_M_initEv
FN:171,_ZNSt10_List_nodeINSt7__cxx1112basic_stringIcSt11char_traitsIcESaIcEEEE9_M_valptrEv
FNDA:868,_ZNSt10_List_nodeINSt7__cxx1112basic_stringIcSt11char_traitsIcESaIcEEEE9_M_valptrEv
FN:201,_ZNSt14_List_iteratorINSt7__cxx1112basic_stringIcSt11char_traitsIcESaIcEEEEC2EPNSt8__detail15_List_node_baseE
FNDA:856,_ZNSt14_List_iteratorINSt7__cxx1112basic_stringIcSt11char_traitsIcESaIcEEEEC2EPNSt8__detail15_List_node_baseE
FN:210,_ZNKSt14_List_iteratorINSt7__cxx1112basic_stringIcSt11char_traitsIcESaIcEEEEdeEv
FNDA:428,_ZNKSt14_List_iteratorINSt7__cxx1112basic_stringIcSt11char_traitsIcESaIcEEEEdeEv
FN:218,_ZNSt14_List_iteratorINSt7__cxx1112basic_stringIcSt11char_traitsIcESaIcEEEEppEv
FNDA:0,_ZNSt14_List_iteratorINSt7__cxx1112basic_stringIcSt11char_traitsIcESaIcEEEEppEv
FN:233,_ZNSt14_List_iteratorINSt7__cxx1112basic_stringIcSt11char_traitsIcESaIcEEEEmmEv
FNDA:220,_ZNSt14_List_iteratorINSt7__cxx1112basic_stringIcSt11char_traitsIcESaIcEEEEmmEv
FN:253,_ZStneRKSt14_List_iteratorINSt7__cxx1112basic_stringIcSt11char_traitsIcESaIcEEEES8_
FNDA:0,_ZStneRKSt14_List_iteratorINSt7__cxx1112basic_stringIcSt11char_traitsIcESaIcEEEES8_
FN:380,_ZNSt7__cxx1110_List_baseINS_12basic_stringIcSt11char_traitsIcESaIcEEESaIS5_EE10_List_implC2Ev
FNDA:54,_ZNSt7__cxx1110_List_baseINS_12basic_stringIcSt11char_traitsIcESaIcEEESaIS5_EE10_List_implC2Ev
FN:409,_ZNSt7__cxx1110_List_baseINS_12basic_stringIcSt11char_traitsIcESaIcEEESaIS5_EE11_M_inc_sizeEm
FNDA:220,_ZNSt7__cxx1110_List_baseINS_12basic_stringIcSt11char_traitsIcESaIcEEESaIS5_EE11_M_inc_sizeEm
FN:411,_ZNSt7__cxx1110_List_baseINS_12basic_stringIcSt11char_traitsIcESaIcEEESaIS5_EE11_M_dec_sizeEm
FNDA:208,_ZNSt7__cxx1110_List_baseINS_12basic_stringIcSt11char_traitsIcESaIcEEESaIS5_EE11_M_dec_sizeEm
FN:442,_ZNSt7__cxx1110_List_baseINS_12basic_stringIcSt11char_traitsIcESaIcEEESaIS5_EE11_M_get_nodeEv
FNDA:220,_ZNSt7__cxx1110_List_baseINS_12basic_stringIcSt11char_traitsIcESaIcEEESaIS5_EE11_M_get_nodeEv
FN:446,_ZNSt7__cxx1110_List_baseINS_12basic_stringIcSt11char_traitsIcESaIcEEESaIS5_EE11_M_put_nodeEPSt10_List_nodeIS5_E
FNDA:220,_ZNSt7__cxx1110_List_baseINS_12basic_stringIcSt11char_traitsIcESaIcEEESaIS5_EE11_M_put_nodeEPSt10_List_nodeIS5_E
FN:453,_ZNSt7__cxx1110_List_baseINS_12basic_stringIcSt11char_traitsIcESaIcEEESaIS5_EE21_M_get_Node_allocatorEv
FNDA:440,_ZNSt7__cxx1110_List_baseINS_12basic_stringIcSt11char_traitsIcESaIcEEESaIS5_EE21_M_get_Node_allocatorEv
FN:461,_ZNSt7__cxx1110_List_baseINS_12basic_stringIcSt11char_traitsIcESaIcEEESaIS5_EEC2Ev
FNDA:54,_ZNSt7__cxx1110_List_baseINS_12basic_stringIcSt11char_traitsIcESaIcEEESaIS5_EEC2Ev
FN:499,_ZNSt7__cxx1110_List_baseINS_12basic_stringIcSt11char_traitsIcESaIcEEESaIS5_EED2Ev
FNDA:54,_ZNSt7__cxx1110_List_baseINS_12basic_stringIcSt11char_traitsIcESaIcEEESaIS5_EED2Ev
FN:633,_ZNSt7__cxx114listINS_12basic_stringIcSt11char_traitsIcESaIcEEESaIS5_EE14_M_create_nodeIJRA2048_cEEEPSt10_List_nodeIS5_EDpOT_
FNDA:10,_ZNSt7__cxx114listINS_12basic_stringIcSt11char_traitsIcESaIcEEESaIS5_EE14_M_create_nodeIJRA2048_cEEEPSt10_List_nodeIS5_EDpOT_
FN:633,_ZNSt7__cxx114listINS_12basic_stringIcSt11char_traitsIcESaIcEEESaIS5_EE14_M_create_nodeIJRA82_KcEEEPSt10_List_nodeIS5_EDpOT_
FNDA:2,_ZNSt7__cxx114listINS_12basic_stringIcSt11char_traitsIcESaIcEEESaIS5_EE14_M_create_nodeIJRA82_KcEEEPSt10_List_nodeIS5_EDpOT_
FN:633,_ZNSt7__cxx114listINS_12basic_stringIcSt11char_traitsIcESaIcEEESaIS5_EE14_M_create_nodeIJRPKcEEEPSt10_List_nodeIS5_EDpOT_
FNDA:208,_ZNSt7__cxx114listINS_12basic_stringIcSt11char_traitsIcESaIcEEESaIS5_EE14_M_create_nodeIJRPKcEEEPSt10_List_nodeIS5_EDpOT_
FN:674,_ZNSt7__cxx114listINS_12basic_stringIcSt11char_traitsIcESaIcEEESaIS5_EEC2Ev
FNDA:54,_ZNSt7__cxx114listINS_12basic_stringIcSt11char_traitsIcESaIcEEESaIS5_EEC2Ev
FN:828,_ZNSt7__cxx114listINS_12basic_stringIcSt11char_traitsIcESaIcEEESaIS5_EED2Ev
FNDA:54,_ZNSt7__cxx114listINS_12basic_stringIcSt11char_traitsIcESaIcEEESaIS5_EED2Ev
FN:946,_ZNSt7__cxx114listINS_12basic_stringIcSt11char_traitsIcESaIcEEESaIS5_EE5beginEv
FNDA:416,_ZNSt7__cxx114listINS_12basic_stringIcSt11char_traitsIcESaIcEEESaIS5_EE5beginEv
FN:964,_ZNSt7__cxx114listINS_12basic_stringIcSt11char_traitsIcESaIcEEESaIS5_EE3endEv
FNDA:440,_ZNSt7__cxx114listINS_12basic_stringIcSt11char_traitsIcESaIcEEESaIS5_EE3endEv
FN:1056,_ZNKSt7__cxx114listINS_12basic_stringIcSt11char_traitsIcESaIcEEESaIS5_EE5emptyEv
FNDA:364,_ZNKSt7__cxx114listINS_12basic_stringIcSt11char_traitsIcESaIcEEESaIS5_EE5emptyEv
FN:1115,_ZNSt7__cxx114listINS_12basic_stringIcSt11char_traitsIcESaIcEEESaIS5_EE5frontEv
FNDA:208,_ZNSt7__cxx114listINS_12basic_stringIcSt11char_traitsIcESaIcEEESaIS5_EE5frontEv
FN:1131,_ZNSt7__cxx114listINS_12basic_stringIcSt11char_traitsIcESaIcEEESaIS5_EE4backEv
FNDA:220,_ZNSt7__cxx114listINS_12basic_stringIcSt11char_traitsIcESaIcEEESaIS5_EE4backEv
FN:1198,_ZNSt7__cxx114listINS_12basic_stringIcSt11char_traitsIcESaIcEEESaIS5_EE9pop_frontEv
FNDA:208,_ZNSt7__cxx114listINS_12basic_stringIcSt11char_traitsIcESaIcEEESaIS5_EE9pop_frontEv
FN:1226,_ZNSt7__cxx114listINS_12basic_stringIcSt11char_traitsIcESaIcEEESaIS5_EE12emplace_backIJRA2048_cEEERS5_DpOT_
FNDA:10,_ZNSt7__cxx114listINS_12basic_stringIcSt11char_traitsIcESaIcEEESaIS5_EE12emplace_backIJRA2048_cEEERS5_DpOT_
FN:1226,_ZNSt7__cxx114listINS_12basic_stringIcSt11char_traitsIcESaIcEEESaIS5_EE12emplace_backIJRA82_KcEEERS5_DpOT_
FNDA:2,_ZNSt7__cxx114listINS_12basic_stringIcSt11char_traitsIcESaIcEEESaIS5_EE12emplace_backIJRA82_KcEEERS5_DpOT_
FN:1226,_ZNSt7__cxx114listINS_12basic_stringIcSt11char_traitsIcESaIcEEESaIS5_EE12emplace_backIJRPKcEEERS5_DpOT_
FNDA:208,_ZNSt7__cxx114listINS_12basic_stringIcSt11char_traitsIcESaIcEEESaIS5_EE12emplace_backIJRPKcEEERS5_DpOT_
FN:1910,_ZNSt7__cxx114listINS_12basic_stringIcSt11char_traitsIcESaIcEEESaIS5_EE9_M_insertIJRPKcEEEvSt14_List_iteratorIS5_EDpOT_
FNDA:208,_ZNSt7__cxx114listINS_12basic_stringIcSt11char_traitsIcESaIcEEESaIS5_EE9_M_insertIJRPKcEEEvSt14_List_iteratorIS5_EDpOT_
FN:1910,_ZNSt7__cxx114listINS_12basic_stringIcSt11char_traitsIcESaIcEEESaIS5_EE9_M_insertIJRA82_KcEEEvSt14_List_iteratorIS5_EDpOT_
FNDA:2,_ZNSt7__cxx114listINS_12basic_stringIcSt11char_traitsIcESaIcEEESaIS5_EE9_M_insertIJRA82_KcEEEvSt14_List_iteratorIS5_EDpOT_
FN:1910,_ZNSt7__cxx114listINS_12basic_stringIcSt11char_traitsIcESaIcEEESaIS5_EE9_M_insertIJRA2048_cEEEvSt14_List_iteratorIS5_EDpOT_
FNDA:10,_ZNSt7__cxx114listINS_12basic_stringIcSt11char_traitsIcESaIcEEESaIS5_EE9_M_insertIJRA2048_cEEEvSt14_List_iteratorIS5_EDpOT_
FN:1920,_ZNSt7__cxx114listINS_12basic_stringIcSt11char_traitsIcESaIcEEESaIS5_EE8_M_eraseESt14_List_iteratorIS5_E
FNDA:208,_ZNSt7__cxx114listINS_12basic_stringIcSt11char_traitsIcESaIcEEESaIS5_EE8_M_eraseESt14_List_iteratorIS5_E
DA:110,54
DA:111,54
DA:150,54
DA:152,54
DA:154,54
DA:156,54
DA:171,868
DA:201,856
DA:202,856
DA:210,428
DA:211,428
DA:218,0
DA:220,0
DA:221,0
DA:233,220
DA:235,220
DA:236,220
DA:253,0
DA:254,0
DA:380,54
DA:382,54
DA:383,54
DA:409,220
DA:411,208
DA:442,220
DA:443,220
DA:446,220
DA:447,220
DA:453,440
DA:454,440
DA:461,54
DA:499,54
DA:500,54
DA:633,10
DA:635,10
DA:636,10
DA:637,10
DA:638,10
DA:640,10
DA:641,10
DA:642,10
DA:633,2
DA:635,2
DA:636,2
DA:637,2
DA:638,2
DA:640,2
DA:641,2
DA:642,2
DA:633,208
DA:635,208
DA:636,208
DA:637,208
DA:638,208
DA:640,208
DA:641,208
DA:642,208
DA:674,54
DA:828,54
DA:946,416
DA:947,416
DA:964,440
DA:965,440
DA:1056,364
DA:1057,364
DA:1115,208
DA:1116,208
DA:1131,220
DA:1133,220
DA:1134,220
DA:1135,220
DA:1198,208
DA:1199,208
DA:1226,10
DA:1228,10
DA:1230,10
DA:1226,2
DA:1228,2
DA:1230,2
DA:1226,208
DA:1228,208
DA:1230,208
DA:1910,10
DA:1912,10
DA:1913,10
DA:1914,10
DA:1915,10
DA:1910,2
DA:1912,2
DA:1913,2
DA:1914,2
DA:1915,2
DA:1910,208
DA:1912,208
DA:1913,208
DA:1914,208
DA:1915,208
DA:1920,208
DA:1922,208
DA:1923,208
DA:1924,208
DA:1926,208
DA:1931,208
DA:1932,208
end_of_record
SF:/usr/include/c++/11/bits/allocator.h
FN:156,_ZNSaISt10_List_nodeINSt7__cxx1112basic_stringIcSt11char_traitsIcESaIcEEEEEC2Ev
FNDA:54,_ZNSaISt10_List_nodeINSt7__cxx1112basic_stringIcSt11char_traitsIcESaIcEEEEEC2Ev
FN:156,_ZNSaIN11MyFtpServer9User_InfoEEC2Ev
FNDA:52,_ZNSaIN11MyFtpServer9User_InfoEEC2Ev
FN:156,_ZNSaISt4pairIKNSt7__cxx1112basic_stringIcSt11char_traitsIcESaIcEEEMN11MyFtpServer15Command_HandlerEFvRKNS7_9cmd_info_EEEEC2Ev
FNDA:2,_ZNSaISt4pairIKNSt7__cxx1112basic_stringIcSt11char_traitsIcESaIcEEEMN11MyFtpServer15Command_HandlerEFvRKNS7_9cmd_info_EEEEC2Ev
FN:159,_ZNSaINSt8__detail10_Hash_nodeISt4pairIKNSt7__cxx1112basic_stringIcSt11char_traitsIcESaIcEEEMN11MyFtpServer15Command_HandlerEFvRKNS9_9cmd_info_EEELb1EEEEC2ERKSI_
FNDA:2,_ZNSaINSt8__detail10_Hash_nodeISt4pairIKNSt7__cxx1112basic_stringIcSt11char_traitsIcESaIcEEEMN11MyFtpServer15Command_HandlerEFvRKNS9_9cmd_info_EEELb1EEEEC2ERKSI_
FN:159,_ZNSaIN11MyFtpServer9User_InfoEEC2ERKS1_
FNDA:156,_ZNSaIN11MyFtpServer9User_InfoEEC2ERKS1_
FN:169,_ZNSaISt23_Sp_counted_ptr_inplaceIN11MyFtpServer9User_InfoESaIS1_ELN9__gnu_cxx12_Lock_policyE2EEEC2IS1_EERKSaIT_E
FNDA:104,_ZNSaISt23_Sp_counted_ptr_inplaceIN11MyFtpServer9User_InfoESaIS1_ELN9__gnu_cxx12_Lock_policyE2EEEC2IS1_EERKSaIT_E
FN:169,_ZNSaIPNSt8__detail15_Hash_node_baseEEC2INS_10_Hash_nodeISt4pairIKNSt7__cxx1112basic_stringIcSt11char_traitsIcESaIcEEEMN11MyFtpServer15Command_HandlerEFvRKNSD_9cmd_info_EEELb1EEEEERKSaIT_E
FNDA:8,_ZNSaIPNSt8__detail15_Hash_node_baseEEC2INS_10_Hash_nodeISt4pairIKNSt7__cxx1112basic_stringIcSt11char_traitsIcESaIcEEEMN11MyFtpServer15Command_HandlerEFvRKNSD_9cmd_info_EEELb1EEEEERKSaIT_E
FN:169,_ZNSaINSt8__detail10_Hash_nodeISt4pairIKNSt7__cxx1112basic_stringIcSt11char_traitsIcESaIcEEEMN11MyFtpServer15Command_HandlerEFvRKNS9_9cmd_info_EEELb1EEEEC2ISG_EERKSaIT_E
FNDA:2,_ZNSaINSt8__detail10_Hash_nodeISt4pairIKNSt7__cxx1112basic_stringIcSt11char_traitsIcESaIcEEEMN11MyFtpServer15Command_HandlerEFvRKNS9_9cmd_info_EEELb1EEEEC2ISG_EERKSaIT_E
FN:174,_ZNSaISt23_Sp_counted_ptr_inplaceIN11MyFtpServer9User_InfoESaIS1_ELN9__gnu_cxx12_Lock_policyE2EEED2Ev
FNDA:104,_ZNSaISt23_Sp_counted_ptr_inplaceIN11MyFtpServer9User_InfoESaIS1_ELN9__gnu_cxx12_Lock_policyE2EEED2Ev
FN:174,_ZNSaIPNSt8__detail15_Hash_node_baseEED2Ev
FNDA:12,_ZNSaIPNSt8__detail15_Hash_node_baseEED2Ev
FN:174,_ZNSaINSt8__detail10_Hash_nodeISt4pairIKNSt7__cxx1112basic_stringIcSt11char_traitsIcESaIcEEEMN11MyFtpServer15Command_HandlerEFvRKNS9_9cmd_info_EEELb1EEEED2Ev
FNDA:4,_ZNSaINSt8__detail10_Hash_nodeISt4pairIKNSt7__cxx1112basic_stringIcSt11char_traitsIcESaIcEEEMN11MyFtpServer15Command_HandlerEFvRKNS9_9cmd_info_EEELb1EEEED2Ev
FN:174,_ZNSaIN11MyFtpServer9User_InfoEED2Ev
FNDA:208,_ZNSaIN11MyFtpServer9User_InfoEED2Ev
FN:174,_ZNSaISt10_List_nodeINSt7__cxx1112basic_stringIcSt11char_traitsIcESaIcEEEEED2Ev
FNDA:54,_ZNSaISt10_List_nodeINSt7__cxx1112basic_stringIcSt11char_traitsIcESaIcEEEEED2Ev
FN:174,_ZNSaISt4pairIKNSt7__cxx1112basic_stringIcSt11char_traitsIcESaIcEEEMN11MyFtpServer15Command_HandlerEFvRKNS7_9cmd_info_EEEED2Ev
FNDA:2,_ZNSaISt4pairIKNSt7__cxx1112basic_stringIcSt11char_traitsIcESaIcEEEMN11MyFtpServer15Command_HandlerEFvRKNS7_9cmd_info_EEEED2Ev
DA:156,54
DA:156,52
DA:156,2
DA:159,2
DA:160,2
DA:159,156
DA:160,156
DA:169,104
DA:169,8
DA:169,2
DA:174,104
DA:174,12
DA:174,4
DA:174,208
DA:174,54
DA:174,2
end_of_record
SF:/home/hksong/hksong/prjs/myftpserver/include/user_info.h
FN:30,_ZN11MyFtpServer9User_InfoD2Ev
FNDA:58,_ZN11MyFtpServer9User_InfoD2Ev
FN:33,_ZN11MyFtpServer9User_Info10is_loggingEv
FNDA:28,_ZN11MyFtpServer9User_Info10is_loggingEv
DA:30,58
DA:33,28
end_of_record
SF:/usr/include/c++/11/tuple
FN:80,_ZNSt10_Head_baseILm1ESt14default_deleteIN11MyFtpServer12Data_HandlerEELb1EEC2Ev
FNDA:68,_ZNSt10_Head_baseILm1ESt14default_deleteIN11MyFtpServer12Data_HandlerEELb1EEC2Ev
FN:124,_ZNSt10_Head_baseILm1ESt14default_deleteIN11MyFtpServer12Data_HandlerEELb1EE7_M_headERS4_
FNDA:30,_ZNSt10_Head_baseILm1ESt14default_deleteIN11MyFtpServer12Data_HandlerEELb1EE7_M_headERS4_
FN:189,_ZNSt10_Head_baseILm0EPN11MyFtpServer12Data_HandlerELb0EEC2Ev
FNDA:68,_ZNSt10_Head_baseILm0EPN11MyFtpServer12Data_HandlerELb0EEC2Ev
FN:233,_ZNSt10_Head_baseILm0EPN11MyFtpServer12Data_HandlerELb0EE7_M_headERS3_
FNDA:118,_ZNSt10_Head_baseILm0EPN11MyFtpServer12Data_HandlerELb0EE7_M_headERS3_
FN:236,_ZNSt10_Head_baseILm0EPN11MyFtpServer12Data_HandlerELb0EE7_M_headERKS3_
FNDA:20,_ZNSt10_Head_baseILm0EPN11MyFtpServer12Data_HandlerELb0EE7_M_headERKS3_
FN:268,_ZNSt11_Tuple_implILm0EJPN11MyFtpServer12Data_HandlerESt14default_deleteIS1_EEE7_M_headERS5_
FNDA:118,_ZNSt11_Tuple_implILm0EJPN11MyFtpServer12Data_HandlerESt14default_deleteIS1_EEE7_M_headERS5_
FN:271,_ZNSt11_Tuple_implILm0EJPN11MyFtpServer12Data_HandlerESt14default_deleteIS1_EEE7_M_headERKS5_
FNDA:20,_ZNSt11_Tuple_implILm0EJPN11MyFtpServer12Data_HandlerESt14default_deleteIS1_EEE7_M_headERKS5_
FN:279,_ZNSt11_Tuple_implILm0EJPN11MyFtpServer12Data_HandlerESt14default_deleteIS1_EEEC2Ev
FNDA:68,_ZNSt11_Tuple_implILm0EJPN11MyFtpServer12Data_HandlerESt14default_deleteIS1_EEEC2Ev
FN:424,_ZNSt11_Tuple_implILm1EJSt14default_deleteIN11MyFtpServer12Data_HandlerEEEE7_M_headERS4_
FNDA:30,_ZNSt11_Tuple_implILm1EJSt14default_deleteIN11MyFtpServer12Data_HandlerEEEE7_M_headERS4_
FN:430,_ZNSt11_Tuple_implILm1EJSt14default_deleteIN11MyFtpServer12Data_HandlerEEEEC2Ev
FNDA:68,_ZNSt11_Tuple_implILm1EJSt14default_deleteIN11MyFtpServer12Data_HandlerEEEEC2Ev
FN:1049,_ZNSt5tupleIJPN11MyFtpServer12Data_HandlerESt14default_deleteIS1_EEEC2ILb1ELb1EEEv
FNDA:68,_ZNSt5tupleIJPN11MyFtpServer12Data_HandlerESt14default_deleteIS1_EEEC2ILb1ELb1EEEv
FN:1377,_ZSt12__get_helperILm0EPN11MyFtpServer12Data_HandlerEJSt14default_deleteIS1_EEERT0_RSt11_Tuple_implIXT_EJS5_DpT1_EE
FNDA:118,_ZSt12__get_helperILm0EPN11MyFtpServer12Data_HandlerEJSt14default_deleteIS1_EEERT0_RSt11_Tuple_implIXT_EJS5_DpT1_EE
FN:1377,_ZSt12__get_helperILm1ESt14default_deleteIN11MyFtpServer12Data_HandlerEEJEERT0_RSt11_Tuple_implIXT_EJS4_DpT1_EE
FNDA:30,_ZSt12__get_helperILm1ESt14default_deleteIN11MyFtpServer12Data_HandlerEEJEERT0_RSt11_Tuple_implIXT_EJS4_DpT1_EE
FN:1382,_ZSt12__get_helperILm0EPN11MyFtpServer12Data_HandlerEJSt14default_deleteIS1_EEERKT0_RKSt11_Tuple_implIXT_EJS5_DpT1_EE
FNDA:20,_ZSt12__get_helperILm0EPN11MyFtpServer12Data_HandlerEJSt14default_deleteIS1_EEERKT0_RKSt11_Tuple_implIXT_EJS5_DpT1_EE
FN:1393,_ZSt3getILm1EJPN11MyFtpServer12Data_HandlerESt14default_deleteIS1_EEERNSt13tuple_elementIXT_ESt5tupleIJDpT0_EEE4typeERS9_
FNDA:30,_ZSt3getILm1EJPN11MyFtpServer12Data_HandlerESt14default_deleteIS1_EEERNSt13tuple_elementIXT_ESt5tupleIJDpT0_EEE4typeERS9_
FN:1393,_ZSt3getILm0EJPN11MyFtpServer12Data_HandlerESt14default_deleteIS1_EEERNSt13tuple_elementIXT_ESt5tupleIJDpT0_EEE4typeERS9_
FNDA:118,_ZSt3getILm0EJPN11MyFtpServer12Data_HandlerESt14default_deleteIS1_EEERNSt13tuple_elementIXT_ESt5tupleIJDpT0_EEE4typeERS9_
FN:1399,_ZSt3getILm0EJPN11MyFtpServer12Data_HandlerESt14default_deleteIS1_EEERKNSt13tuple_elementIXT_ESt5tupleIJDpT0_EEE4typeERKS9_
FNDA:20,_ZSt3getILm0EJPN11MyFtpServer12Data_HandlerESt14default_deleteIS1_EEERKNSt13tuple_elementIXT_ESt5tupleIJDpT0_EEE4typeERKS9_
DA:80,68
DA:81,68
DA:124,30
DA:189,68
DA:190,68
DA:233,118
DA:236,20
DA:268,118
DA:271,20
DA:279,68
DA:280,68
DA:424,30
DA:430,68
DA:431,68
DA:1049,68
DA:1051,68
DA:1377,30
DA:1378,30
DA:1377,118
DA:1378,118
DA:1382,20
DA:1383,20
DA:1393,30
DA:1394,30
DA:1393,118
DA:1394,118
DA:1399,20
DA:1400,20
end_of_record
SF:/usr/include/c++/11/bits/unique_ptr.h
FN:79,_ZNKSt14default_deleteIN11MyFtpServer12Data_HandlerEEclEPS1_
FNDA:10,_ZNKSt14default_deleteIN11MyFtpServer12Data_HandlerEEclEPS1_
FN:154,_ZNSt15__uniq_ptr_implIN11MyFtpServer12Data_HandlerESt14default_deleteIS1_EEC2Ev
FNDA:58,_ZNSt15__uniq_ptr_implIN11MyFtpServer12Data_HandlerESt14default_deleteIS1_EEC2Ev
FN:155,_ZNSt15__uniq_ptr_implIN11MyFtpServer12Data_HandlerESt14default_deleteIS1_EEC2EPS1_
FNDA:10,_ZNSt15__uniq_ptr_implIN11MyFtpServer12Data_HandlerESt14default_deleteIS1_EEC2EPS1_
FN:165,_ZNSt15__uniq_ptr_implIN11MyFtpServer12Data_HandlerESt14default_deleteIS1_EEaSEOS4_
FNDA:10,_ZNSt15__uniq_ptr_implIN11MyFtpServer12Data_HandlerESt14default_deleteIS1_EEaSEOS4_
FN:172,_ZNSt15__uniq_ptr_implIN11MyFtpServer12Data_HandlerESt14default_deleteIS1_EE6_M_ptrEv
FNDA:118,_ZNSt15__uniq_ptr_implIN11MyFtpServer12Data_HandlerESt14default_deleteIS1_EE6_M_ptrEv
FN:173,_ZNKSt15__uniq_ptr_implIN11MyFtpServer12Data_HandlerESt14default_deleteIS1_EE6_M_ptrEv
FNDA:20,_ZNKSt15__uniq_ptr_implIN11MyFtpServer12Data_HandlerESt14default_deleteIS1_EE6_M_ptrEv
FN:174,_ZNSt15__uniq_ptr_implIN11MyFtpServer12Data_HandlerESt14default_deleteIS1_EE10_M_deleterEv
FNDA:30,_ZNSt15__uniq_ptr_implIN11MyFtpServer12Data_HandlerESt14default_deleteIS1_EE10_M_deleterEv
FN:177,_ZNSt15__uniq_ptr_implIN11MyFtpServer12Data_HandlerESt14default_deleteIS1_EE5resetEPS1_
FNDA:10,_ZNSt15__uniq_ptr_implIN11MyFtpServer12Data_HandlerESt14default_deleteIS1_EE5resetEPS1_
FN:185,_ZNSt15__uniq_ptr_implIN11MyFtpServer12Data_HandlerESt14default_deleteIS1_EE7releaseEv
FNDA:10,_ZNSt15__uniq_ptr_implIN11MyFtpServer12Data_HandlerESt14default_deleteIS1_EE7releaseEv
FN:212,_ZNSt15__uniq_ptr_dataIN11MyFtpServer12Data_HandlerESt14default_deleteIS1_ELb1ELb1EEaSEOS4_
FNDA:10,_ZNSt15__uniq_ptr_dataIN11MyFtpServer12Data_HandlerESt14default_deleteIS1_ELb1ELb1EEaSEOS4_
FN:281,_ZNSt10unique_ptrIN11MyFtpServer12Data_HandlerESt14default_deleteIS1_EEC2IS3_vEEPS1_
FNDA:10,_ZNSt10unique_ptrIN11MyFtpServer12Data_HandlerESt14default_deleteIS1_EEC2IS3_vEEPS1_
FN:320,_ZNSt10unique_ptrIN11MyFtpServer12Data_HandlerESt14default_deleteIS1_EEC2IS3_vEEDn
FNDA:52,_ZNSt10unique_ptrIN11MyFtpServer12Data_HandlerESt14default_deleteIS1_EEC2IS3_vEEDn
FN:355,_ZNSt10unique_ptrIN11MyFtpServer12Data_HandlerESt14default_deleteIS1_EED2Ev
FNDA:68,_ZNSt10unique_ptrIN11MyFtpServer12Data_HandlerESt14default_deleteIS1_EED2Ev
FN:371,_ZNSt10unique_ptrIN11MyFtpServer12Data_HandlerESt14default_deleteIS1_EEaSEOS4_
FNDA:10,_ZNSt10unique_ptrIN11MyFtpServer12Data_HandlerESt14default_deleteIS1_EEaSEOS4_
FN:413,_ZNKSt10unique_ptrIN11MyFtpServer12Data_HandlerESt14default_deleteIS1_EEptEv
FNDA:12,_ZNKSt10unique_ptrIN11MyFtpServer12Data_HandlerESt14default_deleteIS1_EEptEv
FN:421,_ZNKSt10unique_ptrIN11MyFtpServer12Data_HandlerESt14default_deleteIS1_EE3getEv
FNDA:20,_ZNKSt10unique_ptrIN11MyFtpServer12Data_HandlerESt14default_deleteIS1_EE3getEv
FN:426,_ZNSt10unique_ptrIN11MyFtpServer12Data_HandlerESt14default_deleteIS1_EE11get_deleterEv
FNDA:10,_ZNSt10unique_ptrIN11MyFtpServer12Data_HandlerESt14default_deleteIS1_EE11get_deleterEv
FN:435,_ZNKSt10unique_ptrIN11MyFtpServer12Data_HandlerESt14default_deleteIS1_EEcvbEv
FNDA:8,_ZNKSt10unique_ptrIN11MyFtpServer12Data_HandlerESt14default_deleteIS1_EEcvbEv
FN:452,_ZNSt10unique_ptrIN11MyFtpServer12Data_HandlerESt14default_deleteIS1_EE5resetEPS1_
FNDA:0,_ZNSt10unique_ptrIN11MyFtpServer12Data_HandlerESt14default_deleteIS1_EE5resetEPS1_
DA:79,10
DA:85,10
DA:86,10
DA:154,58
DA:155,10
DA:165,10
DA:167,10
DA:168,10
DA:169,10
DA:172,118
DA:173,20
DA:174,30
DA:177,10
DA:179,10
DA:180,10
DA:181,10
DA:182,0
DA:183,10
DA:185,10
DA:187,10
DA:188,10
DA:189,10
DA:212,10
DA:281,10
DA:282,10
DA:283,10
DA:320,52
DA:321,52
DA:322,52
DA:355,68
DA:359,68
DA:360,68
DA:361,10
DA:362,68
DA:363,68
DA:371,10
DA:413,12
DA:416,12
DA:421,20
DA:422,20
DA:426,10
DA:427,10
DA:435,8
DA:436,8
DA:452,0
DA:456,0
DA:457,0
end_of_record
SF:/usr/include/ace/SOCK_IO.inl
FN:9,_ZN11ACE_SOCK_IOC2Ev
FNDA:62,_ZN11ACE_SOCK_IOC2Ev
FN:15,_ZN11ACE_SOCK_IOD2Ev
FNDA:62,_ZN11ACE_SOCK_IOD2Ev
FN:35,_ZNK11ACE_SOCK_IO4recvEPvmPK14ACE_Time_Value
FNDA:0,_ZNK11ACE_SOCK_IO4recvEPvmPK14ACE_Time_Value
FN:85,_ZNK11ACE_SOCK_IO4sendEPKvmPK14ACE_Time_Value
FNDA:0,_ZNK11ACE_SOCK_IO4sendEPKvmPK14ACE_Time_Value
DA:9,62
DA:12,62
DA:15,62
DA:18,62
DA:35,0
DA:40,0
DA:43,0
DA:85,0
DA:90,0
DA:93,0
end_of_record
SF:/usr/include/ace/Reactor.inl
FN:118,_ZNK11ACE_Reactor14implementationEv
FNDA:0,_ZNK11ACE_Reactor14implementationEv
FN:225,_ZN11ACE_Reactor14remove_handlerEP17ACE_Event_Handlerm
FNDA:0,_ZN11ACE_Reactor14remove_handlerEP17ACE_Event_Handlerm
DA:118,0
DA:120,0
DA:225,0
DA:228,0
end_of_record
SF:/usr/include/ace/OS_NS_Thread.inl
FN:123,_ZN6ACE_OS16condattr_destroyER18pthread_condattr_t
FNDA:0,_ZN6ACE_OS16condattr_destroyER18pthread_condattr_t
FN:139,_ZN6ACE_OS13condattr_initER18pthread_condattr_ti
FNDA:0,_ZN6ACE_OS13condattr_initER18pthread_condattr_ti
FN:3687,_ZN6ACE_OS17thread_mutex_lockEP15pthread_mutex_t
FNDA:0,_ZN6ACE_OS17thread_mutex_lockEP15pthread_mutex_t
FN:3768,_ZN6ACE_OS19thread_mutex_unlockEP15pthread_mutex_t
FNDA:0,_ZN6ACE_OS19thread_mutex_unlockEP15pthread_mutex_t
DA:123,0
DA:127,0
DA:131,0
DA:139,0
DA:144,0
DA:154,0
DA:155,0
DA:157,0
DA:164,0
DA:168,0
DA:171,0
DA:3687,0
DA:3695,0
DA:3768,0
DA:3776,0
end_of_record
SF:/usr/include/c++/11/bits/stl_algo.h
FN:4285,_ZSt9transformIN9__gnu_cxx17__normal_iteratorIPcNSt7__cxx1112basic_stringIcSt11char_traitsIcESaIcEEEEES9_PDoFiiEET0_T_SD_SC_T1_
FNDA:4,_ZSt9transformIN9__gnu_cxx17__normal_iteratorIPcNSt7__cxx1112basic_stringIcSt11char_traitsIcESaIcEEEEES9_PDoFiiEET0_T_SD_SC_T1_
DA:4285,4
DA:4295,20
DA:4296,16
DA:4297,4
end_of_record
SF:/usr/include/ace/OS_NS_string.inl
FN:42,_ZN6ACE_OS6memsetEPvim
FNDA:52,_ZN6ACE_OS6memsetEPvim
DA:42,52
DA:44,52
end_of_record
SF:/usr/include/c++/11/bits/move.h
FN:49,_ZSt11__addressofINSt8__detail10_Hash_nodeISt4pairIKNSt7__cxx1112basic_stringIcSt11char_traitsIcESaIcEEEMN11MyFtpServer15Command_HandlerEFvRKNSA_9cmd_info_EEELb1EEEEPT_RSJ_
FNDA:38,_ZSt11__addressofINSt8__detail10_Hash_nodeISt4pairIKNSt7__cxx1112basic_stringIcSt11char_traitsIcESaIcEEEMN11MyFtpServer15Command_HandlerEFvRKNSA_9cmd_info_EEELb1EEEEPT_RSJ_
FN:49,_ZSt11__addressofISaISt23_Sp_counted_ptr_inplaceIN11MyFtpServer9User_InfoESaIS2_ELN9__gnu_cxx12_Lock_policyE2EEEEPT_RS8_
FNDA:104,_ZSt11__addressofISaISt23_Sp_counted_ptr_inplaceIN11MyFtpServer9User_InfoESaIS2_ELN9__gnu_cxx12_Lock_policyE2EEEEPT_RS8_
FN:49,_ZSt11__addressofIPNSt8__detail15_Hash_node_baseEEPT_RS3_
FNDA:6,_ZSt11__addressofIPNSt8__detail15_Hash_node_baseEEPT_RS3_
FN:49,_ZSt11__addressofISaISt10_List_nodeINSt7__cxx1112basic_stringIcSt11char_traitsIcESaIcEEEEEEPT_RS9_
FNDA:220,_ZSt11__addressofISaISt10_List_nodeINSt7__cxx1112basic_stringIcSt11char_traitsIcESaIcEEEEEEPT_RS9_
FN:77,_ZSt7forwardIRA5_KcEOT_RNSt16remove_referenceIS3_E4typeE
FNDA:30,_ZSt7forwardIRA5_KcEOT_RNSt16remove_referenceIS3_E4typeE
FN:77,_ZSt7forwardIMN11MyFtpServer15Command_HandlerEFvRKNS0_9cmd_info_EEEOT_RNSt16remove_referenceIS7_E4typeE
FNDA:38,_ZSt7forwardIMN11MyFtpServer15Command_HandlerEFvRKNS0_9cmd_info_EEEOT_RNSt16remove_referenceIS7_E4typeE
FN:77,_ZSt7forwardIRA4_KcEOT_RNSt16remove_referenceIS3_E4typeE
FNDA:8,_ZSt7forwardIRA4_KcEOT_RNSt16remove_referenceIS3_E4typeE
FN:77,_ZSt7forwardIbEOT_RNSt16remove_referenceIS0_E4typeE
FNDA:38,_ZSt7forwardIbEOT_RNSt16remove_referenceIS0_E4typeE
FN:77,_ZSt7forwardIRPKcEOT_RNSt16remove_referenceIS3_E4typeE
FNDA:1040,_ZSt7forwardIRPKcEOT_RNSt16remove_referenceIS3_E4typeE
FN:77,_ZSt7forwardISt14default_deleteIN11MyFtpServer12Data_HandlerEEEOT_RNSt16remove_referenceIS4_E4typeE
FNDA:10,_ZSt7forwardISt14default_deleteIN11MyFtpServer12Data_HandlerEEEOT_RNSt16remove_referenceIS4_E4typeE
FN:77,_ZSt7forwardIRA82_KcEOT_RNSt16remove_referenceIS3_E4typeE
FNDA:10,_ZSt7forwardIRA82_KcEOT_RNSt16remove_referenceIS3_E4typeE
FN:77,_ZSt7forwardIRA2048_cEOT_RNSt16remove_referenceIS2_E4typeE
FNDA:50,_ZSt7forwardIRA2048_cEOT_RNSt16remove_referenceIS2_E4typeE
FN:77,_ZSt7forwardIRKSt4pairIKNSt7__cxx1112basic_stringIcSt11char_traitsIcESaIcEEEMN11MyFtpServer15Command_HandlerEFvRKNS8_9cmd_info_EEEEOT_RNSt16remove_referenceISI_E4typeE
FNDA:230,_ZSt7forwardIRKSt4pairIKNSt7__cxx1112basic_stringIcSt11char_traitsIcESaIcEEEMN11MyFtpServer15Command_HandlerEFvRKNS8_9cmd_info_EEEEOT_RNSt16remove_referenceISI_E4typeE
FN:77,_ZSt7forwardISaINSt8__detail10_Hash_nodeISt4pairIKNSt7__cxx1112basic_stringIcSt11char_traitsIcESaIcEEEMN11MyFtpServer15Command_HandlerEFvRKNSA_9cmd_info_EEELb1EEEEEOT_RNSt16remove_referenceISK_E4typeE
FNDA:4,_ZSt7forwardISaINSt8__detail10_Hash_nodeISt4pairIKNSt7__cxx1112basic_stringIcSt11char_traitsIcESaIcEEEMN11MyFtpServer15Command_HandlerEFvRKNSA_9cmd_info_EEELb1EEEEEOT_RNSt16remove_referenceISK_E4typeE
FN:77,_ZSt7forwardINSt8__detail14_Node_iteratorISt4pairIKNSt7__cxx1112basic_stringIcSt11char_traitsIcESaIcEEEMN11MyFtpServer15Command_HandlerEFvRKNSA_9cmd_info_EEELb0ELb1EEEEOT_RNSt16remove_referenceISJ_E4typeE
FNDA:0,_ZSt7forwardINSt8__detail14_Node_iteratorISt4pairIKNSt7__cxx1112basic_stringIcSt11char_traitsIcESaIcEEEMN11MyFtpServer15Command_HandlerEFvRKNSA_9cmd_info_EEELb0ELb1EEEEOT_RNSt16remove_referenceISJ_E4typeE
FN:77,_ZSt7forwardIRNSt8__detail14_Node_iteratorISt4pairIKNSt7__cxx1112basic_stringIcSt11char_traitsIcESaIcEEEMN11MyFtpServer15Command_HandlerEFvRKNSA_9cmd_info_EEELb0ELb1EEEEOT_RNSt16remove_referenceISK_E4typeE
FNDA:38,_ZSt7forwardIRNSt8__detail14_Node_iteratorISt4pairIKNSt7__cxx1112basic_stringIcSt11char_traitsIcESaIcEEEMN11MyFtpServer15Command_HandlerEFvRKNSA_9cmd_info_EEELb0ELb1EEEEOT_RNSt16remove_referenceISK_E4typeE
FN:77,_ZSt7forwardIRKSt8equal_toINSt7__cxx1112basic_stringIcSt11char_traitsIcESaIcEEEEEOT_RNSt16remove_referenceISA_E4typeE
FNDA:2,_ZSt7forwardIRKSt8equal_toINSt7__cxx1112basic_stringIcSt11char_traitsIcESaIcEEEEEOT_RNSt16remove_referenceISA_E4typeE
FN:77,_ZSt7forwardIRKSt4hashINSt7__cxx1112basic_stringIcSt11char_traitsIcESaIcEEEEEOT_RNSt16remove_referenceISA_E4typeE
FNDA:2,_ZSt7forwardIRKSt4hashINSt7__cxx1112basic_stringIcSt11char_traitsIcESaIcEEEEEOT_RNSt16remove_referenceISA_E4typeE
FN:104,_ZSt4moveIRPN11MyFtpServer12Data_HandlerEEONSt16remove_referenceIT_E4typeEOS5_
FNDA:10,_ZSt4moveIRPN11MyFtpServer12Data_HandlerEEONSt16remove_referenceIT_E4typeEOS5_
FN:104,_ZSt4moveIRNSt7__cxx1112basic_stringIcSt11char_traitsIcESaIcEEEEONSt16remove_referenceIT_E4typeEOS8_
FNDA:144,_ZSt4moveIRNSt7__cxx1112basic_stringIcSt11char_traitsIcESaIcEEEEONSt16remove_referenceIT_E4typeEOS8_
FN:104,_ZSt4moveIRSaIcEEONSt16remove_referenceIT_E4typeEOS3_
FNDA:0,_ZSt4moveIRSaIcEEONSt16remove_referenceIT_E4typeEOS3_
FN:145,_ZSt9addressofIPNSt8__detail15_Hash_node_baseEEPT_RS3_
FNDA:6,_ZSt9addressofIPNSt8__detail15_Hash_node_baseEEPT_RS3_
FN:145,_ZSt9addressofINSt8__detail10_Hash_nodeISt4pairIKNSt7__cxx1112basic_stringIcSt11char_traitsIcESaIcEEEMN11MyFtpServer15Command_HandlerEFvRKNSA_9cmd_info_EEELb1EEEEPT_RSJ_
FNDA:38,_ZSt9addressofINSt8__detail10_Hash_nodeISt4pairIKNSt7__cxx1112basic_stringIcSt11char_traitsIcESaIcEEEMN11MyFtpServer15Command_HandlerEFvRKNSA_9cmd_info_EEELb1EEEEPT_RSJ_
DA:49,38
DA:50,38
DA:49,104
DA:50,104
DA:49,6
DA:50,6
DA:49,220
DA:50,220
DA:77,2
DA:78,2
DA:77,2
DA:78,2
DA:77,38
DA:78,38
DA:77,0
DA:78,0
DA:77,4
DA:78,4
DA:77,230
DA:78,230
DA:77,50
DA:78,50
DA:77,10
DA:78,10
DA:77,10
DA:78,10
DA:77,1040
DA:78,1040
DA:77,38
DA:78,38
DA:77,8
DA:78,8
DA:77,38
DA:78,38
DA:77,30
DA:78,30
DA:104,10
DA:105,10
DA:104,144
DA:105,144
DA:104,0
DA:105,0
DA:145,38
DA:146,38
DA:145,6
DA:146,6
end_of_record
SF:/usr/include/c++/11/ext/alloc_traits.h
FN:97,_ZN9__gnu_cxx14__alloc_traitsISaIcEcE17_S_select_on_copyERKS1_
FNDA:0,_ZN9__gnu_cxx14__alloc_traitsISaIcEcE17_S_select_on_copyERKS1_
DA:97,0
DA:98,0
end_of_record
SF:/usr/include/c++/11/bits/stl_iterator.h
FN:1042,_ZNK9__gnu_cxx17__normal_iteratorIPcNSt7__cxx1112basic_stringIcSt11char_traitsIcESaIcEEEEdeEv
FNDA:32,_ZNK9__gnu_cxx17__normal_iteratorIPcNSt7__cxx1112basic_stringIcSt11char_traitsIcESaIcEEEEdeEv
FN:1052,_ZN9__gnu_cxx17__normal_iteratorIPcNSt7__cxx1112basic_stringIcSt11char_traitsIcESaIcEEEEppEv
FNDA:32,_ZN9__gnu_cxx17__normal_iteratorIPcNSt7__cxx1112basic_stringIcSt11char_traitsIcESaIcEEEEppEv
FN:1105,_ZNK9__gnu_cxx17__normal_iteratorIPcNSt7__cxx1112basic_stringIcSt11char_traitsIcESaIcEEEE4baseEv
FNDA:40,_ZNK9__gnu_cxx17__normal_iteratorIPcNSt7__cxx1112basic_stringIcSt11char_traitsIcESaIcEEEE4baseEv
FN:1179,_ZN9__gnu_cxxneIPcNSt7__cxx1112basic_stringIcSt11char_traitsIcESaIcEEEEEbRKNS_17__normal_iteratorIT_T0_EESD_
FNDA:20,_ZN9__gnu_cxxneIPcNSt7__cxx1112basic_stringIcSt11char_traitsIcESaIcEEEEEbRKNS_17__normal_iteratorIT_T0_EESD_
DA:1042,32
DA:1043,32
DA:1052,32
DA:1054,32
DA:1055,32
DA:1105,40
DA:1106,40
DA:1179,20
DA:1182,20
end_of_record
SF:/home/hksong/hksong/prjs/myftpserver/src/command_handler.cpp
FN:47,_ZN11MyFtpServer15Command_HandlerC2Ei
FNDA:52,_ZN11MyFtpServer15Command_HandlerC2Ei
FN:62,_ZN11MyFtpServer15Command_HandlerD2Ev
FNDA:52,_ZN11MyFtpServer15Command_HandlerD2Ev
FN:62,_ZN11MyFtpServer15Command_HandlerD0Ev
FNDA:52,_ZN11MyFtpServer15Command_HandlerD0Ev
FN:65,_ZN11MyFtpServer15Command_Handler13get_real_pathERNSt7__cxx1112basic_stringIcSt11char_traitsIcESaIcEEE
FNDA:16,_ZN11MyFtpServer15Command_Handler13get_real_pathERNSt7__cxx1112basic_stringIcSt11char_traitsIcESaIcEEE
FN:128,_ZN11MyFtpServer15Command_Handler27get_and_clear_response_listB5cxx11Ev
FNDA:156,_ZN11MyFtpServer15Command_Handler27get_and_clear_response_listB5cxx11Ev
FN:137,_ZN11MyFtpServer15Command_Handler13send_responseEPKc
FNDA:0,_ZN11MyFtpServer15Command_Handler13send_responseEPKc
FN:145,_ZN11MyFtpServer15Command_Handler19send_response_localEPKc
FNDA:208,_ZN11MyFtpServer15Command_Handler19send_response_localEPKc
FN:150,_ZN11MyFtpServer15Command_Handler11handle_userERKNS_9cmd_info_E
FNDA:62,_ZN11MyFtpServer15Command_Handler11handle_userERKNS_9cmd_info_E
FN:159,_ZN11MyFtpServer15Command_Handler11handle_passERKNS_9cmd_info_E
FNDA:58,_ZN11MyFtpServer15Command_Handler11handle_passERKNS_9cmd_info_E
FN:174,_ZN11MyFtpServer15Command_Handler11handle_systERKNS_9cmd_info_E
FNDA:2,_ZN11MyFtpServer15Command_Handler11handle_systERKNS_9cmd_info_E
FN:178,_ZN11MyFtpServer15Command_Handler11handle_epsvERKNS_9cmd_info_E
FNDA:2,_ZN11MyFtpServer15Command_Handler11handle_epsvERKNS_9cmd_info_E
FN:184,_ZN11MyFtpServer15Command_Handler11handle_eprtERKNS_9cmd_info_E
FNDA:2,_ZN11MyFtpServer15Command_Handler11handle_eprtERKNS_9cmd_info_E
FN:189,_ZN11MyFtpServer15Command_Handler11handle_pasvERKNS_9cmd_info_E
FNDA:2,_ZN11MyFtpServer15Command_Handler11handle_pasvERKNS_9cmd_info_E
FN:217,_ZN11MyFtpServer15Command_Handler11handle_featERKNS_9cmd_info_E
FNDA:2,_ZN11MyFtpServer15Command_Handler11handle_featERKNS_9cmd_info_E
FN:222,_ZN11MyFtpServer15Command_Handler10handle_pwdERKNS_9cmd_info_E
FNDA:4,_ZN11MyFtpServer15Command_Handler10handle_pwdERKNS_9cmd_info_E
FN:227,_ZN11MyFtpServer15Command_Handler10handle_cwdERKNS_9cmd_info_E
FNDA:2,_ZN11MyFtpServer15Command_Handler10handle_cwdERKNS_9cmd_info_E
FN:238,_ZN11MyFtpServer15Command_Handler10handle_mkdERKNS_9cmd_info_E
FNDA:2,_ZN11MyFtpServer15Command_Handler10handle_mkdERKNS_9cmd_info_E
FN:249,_ZN11MyFtpServer15Command_Handler11handle_deleERKNS_9cmd_info_E
FNDA:0,_ZN11MyFtpServer15Command_Handler11handle_deleERKNS_9cmd_info_E
FN:263,_ZN11MyFtpServer15Command_Handler10handle_rmdERKNS_9cmd_info_E
FNDA:2,_ZN11MyFtpServer15Command_Handler10handle_rmdERKNS_9cmd_info_E
FN:279,_ZN11MyFtpServer15Command_Handler11handle_sizeERKNS_9cmd_info_E
FNDA:2,_ZN11MyFtpServer15Command_Handler11handle_sizeERKNS_9cmd_info_E
FN:298,_ZN11MyFtpServer15Command_Handler8list_dirERNSt7__cxx114listINS1_12basic_stringIcSt11char_traitsIcESaIcEEESaIS7_EEEPKcP11__dirstream
FNDA:2,_ZN11MyFtpServer15Command_Handler8list_dirERNSt7__cxx114listINS1_12basic_stringIcSt11char_traitsIcESaIcEEESaIS7_EEEPKcP11__dirstream
FN:412,_ZN11MyFtpServer15Command_Handler20make_data_connectionEv
FNDA:0,_ZN11MyFtpServer15Command_Handler20make_data_connectionEv
FN:430,_ZN11MyFtpServer15Command_Handler11handle_listERKNS_9cmd_info_E
FNDA:0,_ZN11MyFtpServer15Command_Handler11handle_listERKNS_9cmd_info_E
FN:459,_ZN11MyFtpServer15Command_Handler11handle_quitERKNS_9cmd_info_E
FNDA:54,_ZN11MyFtpServer15Command_Handler11handle_quitERKNS_9cmd_info_E
FN:464,_ZN11MyFtpServer15Command_Handler11handle_typeERKNS_9cmd_info_E
FNDA:2,_ZN11MyFtpServer15Command_Handler11handle_typeERKNS_9cmd_info_E
FN:486,_ZN11MyFtpServer15Command_Handler11handle_retrERKNS_9cmd_info_E
FNDA:2,_ZN11MyFtpServer15Command_Handler11handle_retrERKNS_9cmd_info_E
FN:523,_ZN11MyFtpServer15Command_Handler11handle_storERKNS_9cmd_info_E
FNDA:2,_ZN11MyFtpServer15Command_Handler11handle_storERKNS_9cmd_info_E
FN:563,_ZN11MyFtpServer15Command_Handler11handle_portERKNS_9cmd_info_E
FNDA:2,_ZN11MyFtpServer15Command_Handler11handle_portERKNS_9cmd_info_E
FN:587,_ZNK11MyFtpServer15Command_Handler10get_handleEv
FNDA:0,_ZNK11MyFtpServer15Command_Handler10get_handleEv
FN:590,_ZN11MyFtpServer15Command_Handler4openEPv
FNDA:0,_ZN11MyFtpServer15Command_Handler4openEPv
FN:606,_ZN11MyFtpServer15Command_Handler10parse_lineERNS_9cmd_info_E
FNDA:6,_ZN11MyFtpServer15Command_Handler10parse_lineERNS_9cmd_info_E
FN:636,_ZN11MyFtpServer15Command_Handler11process_cmdERKNS_9cmd_info_E
FNDA:4,_ZN11MyFtpServer15Command_Handler11process_cmdERKNS_9cmd_info_E
FN:646,_ZN11MyFtpServer15Command_Handler12handle_inputEi
FNDA:0,_ZN11MyFtpServer15Command_Handler12handle_inputEi
FN:692,_ZN11MyFtpServer15Command_Handler12handle_closeEim
FNDA:0,_ZN11MyFtpServer15Command_Handler12handle_closeEim
DA:47,52
DA:48,52
DA:49,52
DA:50,52
DA:51,104
DA:53,52
DA:54,52
DA:55,0
DA:56,0
DA:58,52
DA:60,52
DA:61,52
DA:62,52
DA:63,52
DA:62,52
DA:63,52
DA:65,16
DA:66,16
DA:67,16
DA:68,0
DA:69,0
DA:71,16
DA:72,16
DA:74,16
DA:75,16
DA:77,16
DA:79,16
DA:80,16
DA:84,16
DA:85,16
DA:86,16
DA:87,632
DA:88,616
DA:89,516
DA:91,100
DA:92,84
DA:93,74
DA:95,10
DA:96,10
DA:97,4
DA:98,4
DA:99,4
DA:101,0
DA:102,0
DA:106,6
DA:107,54
DA:108,54
DA:109,54
DA:110,54
DA:111,6
DA:116,0
DA:120,16
DA:124,16
DA:125,16
DA:126,16
DA:128,156
DA:129,156
DA:130,364
DA:131,208
DA:132,208
DA:134,156
DA:135,0
DA:137,0
DA:138,0
DA:139,0
DA:140,0
DA:141,0
DA:142,0
DA:145,208
DA:146,208
DA:147,208
DA:150,62
DA:151,62
DA:152,62
DA:153,2
DA:154,2
DA:156,60
DA:157,62
DA:159,58
DA:160,58
DA:161,2
DA:163,58
DA:165,58
DA:166,58
DA:167,2
DA:168,2
DA:170,56
DA:171,56
DA:172,58
DA:174,2
DA:175,2
DA:176,2
DA:178,2
DA:179,2
DA:180,2
DA:184,2
DA:185,2
DA:186,2
DA:189,2
DA:190,2
DA:191,2
DA:192,2
DA:193,2
DA:194,2
DA:195,0
DA:196,0
DA:197,0
DA:199,2
DA:200,2
DA:201,2
DA:202,2
DA:203,2
DA:204,2
DA:205,0
DA:208,2
DA:209,2
DA:210,2
DA:211,2
DA:212,2
DA:213,4
DA:214,2
DA:215,2
DA:217,2
DA:218,2
DA:219,2
DA:222,4
DA:223,4
DA:224,8
DA:225,4
DA:226,4
DA:227,2
DA:228,2
DA:229,2
DA:230,2
DA:231,4
DA:232,2
DA:235,0
DA:237,2
DA:238,2
DA:239,4
DA:240,2
DA:241,2
DA:243,2
DA:244,2
DA:246,0
DA:247,2
DA:249,0
DA:250,0
DA:251,0
DA:253,0
DA:254,0
DA:255,0
DA:257,0
DA:258,0
DA:260,0
DA:261,0
DA:263,2
DA:264,4
DA:265,2
DA:266,2
DA:268,2
DA:269,2
DA:270,4
DA:271,0
DA:272,0
DA:274,2
DA:275,2
DA:277,2
DA:279,2
DA:280,2
DA:281,2
DA:283,2
DA:284,2
DA:285,2
DA:286,2
DA:287,0
DA:288,0
DA:289,0
DA:291,4
DA:292,2
DA:293,2
DA:294,0
DA:297,2
DA:298,2
DA:299,2
DA:302,16
DA:303,14
DA:304,14
DA:305,14
DA:306,14
DA:307,14
DA:308,0
DA:309,4
DA:311,14
DA:312,4
DA:314,10
DA:315,10
DA:316,10
DA:317,6
DA:318,6
DA:319,6
DA:320,4
DA:321,4
DA:322,4
DA:323,0
DA:324,0
DA:325,0
DA:326,0
DA:327,0
DA:328,0
DA:329,0
DA:330,0
DA:331,0
DA:332,0
DA:333,0
DA:334,0
DA:335,0
DA:336,0
DA:337,0
DA:338,0
DA:339,0
DA:340,0
DA:343,10
DA:344,10
DA:346,10
DA:347,10
DA:349,10
DA:350,4
DA:352,10
DA:353,10
DA:355,10
DA:356,8
DA:358,10
DA:359,4
DA:361,10
DA:362,10
DA:364,10
DA:365,0
DA:367,10
DA:368,4
DA:370,10
DA:371,0
DA:373,10
DA:374,0
DA:376,10
DA:377,0
DA:379,10
DA:380,10
DA:381,10
DA:382,10
DA:383,10
DA:385,10
DA:387,10
DA:388,10
DA:389,30
DA:390,10
DA:391,20
DA:393,10
DA:394,10
DA:395,10
DA:396,10
DA:397,10
DA:398,0
DA:399,0
DA:400,0
DA:401,0
DA:403,0
DA:404,0
DA:406,10
DA:408,10
DA:411,2
DA:412,0
DA:414,0
DA:416,0
DA:418,0
DA:419,0
DA:421,0
DA:422,0
DA:426,0
DA:430,0
DA:431,0
DA:432,0
DA:433,0
DA:435,0
DA:437,0
DA:440,0
DA:442,0
DA:443,0
DA:445,0
DA:446,0
DA:447,0
DA:448,0
DA:450,0
DA:451,0
DA:452,0
DA:455,0
DA:456,0
DA:457,0
DA:458,0
DA:459,54
DA:460,54
DA:461,54
DA:462,54
DA:464,2
DA:465,2
DA:466,2
DA:467,2
DA:468,2
DA:469,2
DA:470,0
DA:472,0
DA:473,0
DA:474,2
DA:476,2
DA:477,2
DA:478,0
DA:479,0
DA:480,0
DA:482,2
DA:483,2
DA:484,2
DA:486,2
DA:487,2
DA:488,2
DA:489,2
DA:490,2
DA:491,2
DA:493,0
DA:494,0
DA:495,0
DA:496,0
DA:497,0
DA:499,0
DA:500,0
DA:502,0
DA:503,0
DA:504,0
DA:506,0
DA:507,0
DA:509,0
DA:510,0
DA:511,0
DA:513,0
DA:514,0
DA:516,0
DA:518,0
DA:521,0
DA:523,2
DA:528,2
DA:529,2
DA:530,2
DA:531,2
DA:532,2
DA:533,2
DA:535,0
DA:536,0
DA:537,0
DA:539,0
DA:540,0
DA:541,0
DA:542,0
DA:544,0
DA:546,0
DA:547,0
DA:548,0
DA:550,0
DA:552,0
DA:554,0
DA:555,0
DA:556,0
DA:557,0
DA:559,0
DA:560,0
DA:561,0
DA:562,2
DA:563,2
DA:564,2
DA:565,4
DA:568,2
DA:569,2
DA:570,2
DA:571,2
DA:572,2
DA:573,2
DA:575,2
DA:576,0
DA:577,0
DA:580,2
DA:581,0
DA:583,2
DA:584,2
DA:585,2
DA:586,2
DA:587,0
DA:588,0
DA:590,0
DA:591,0
DA:592,0
DA:595,0
DA:596,0
DA:598,0
DA:599,0
DA:600,0
DA:601,0
DA:604,0
DA:605,0
DA:606,6
DA:607,6
DA:608,6
DA:609,2
DA:610,2
DA:612,4
DA:613,4
DA:614,4
DA:615,4
DA:616,4
DA:617,10
DA:618,6
DA:619,6
DA:621,4
DA:622,2
DA:623,2
DA:625,2
DA:626,2
DA:628,0
DA:630,2
DA:631,2
DA:636,4
DA:637,4
DA:638,4
DA:639,4
DA:640,4
DA:641,2
DA:643,2
DA:644,4
DA:646,0
DA:649,0
DA:650,0
DA:652,0
DA:653,0
DA:654,0
DA:656,0
DA:657,0
DA:660,0
DA:661,0
DA:662,0
DA:663,0
DA:664,0
DA:665,0
DA:667,0
DA:669,0
DA:670,0
DA:671,0
DA:674,0
DA:690,0
DA:691,0
DA:692,0
DA:694,0
end_of_record
SF:/usr/include/c++/11/ext/type_traits.h
FN:152,_ZN9__gnu_cxx17__is_null_pointerIcEEbPT_
FNDA:0,_ZN9__gnu_cxx17__is_null_pointerIcEEbPT_
FN:152,_ZN9__gnu_cxx17__is_null_pointerIKcEEbPT_
FNDA:736,_ZN9__gnu_cxx17__is_null_pointerIKcEEbPT_
DA:152,0
DA:153,0
DA:152,736
DA:153,736
end_of_record
SF:/usr/include/ace/SOCK.inl
FN:7,_ZN8ACE_SOCKD2Ev
FNDA:114,_ZN8ACE_SOCKD2Ev
DA:7,114
DA:10,114
end_of_record
SF:/usr/include/c++/11/bits/unordered_map.h
FN:227,_ZNSt13unordered_mapINSt7__cxx1112basic_stringIcSt11char_traitsIcESaIcEEEMN11MyFtpServer15Command_HandlerEFvRKNS6_9cmd_info_EESt4hashIS5_ESt8equal_toIS5_ESaISt4pairIKS5_SC_EEEC2ESt16initializer_listISJ_EmRKSE_RKSG_RKSK_
FNDA:2,_ZNSt13unordered_mapINSt7__cxx1112basic_stringIcSt11char_traitsIcESaIcEEEMN11MyFtpServer15Command_HandlerEFvRKNS6_9cmd_info_EESt4hashIS5_ESt8equal_toIS5_ESaISt4pairIKS5_SC_EEEC2ESt16initializer_listISJ_EmRKSE_RKSG_RKSK_
FN:347,_ZNSt13unordered_mapINSt7__cxx1112basic_stringIcSt11char_traitsIcESaIcEEEMN11MyFtpServer15Command_HandlerEFvRKNS6_9cmd_info_EESt4hashIS5_ESt8equal_toIS5_ESaISt4pairIKS5_SC_EEE3endEv
FNDA:4,_ZNSt13unordered_mapINSt7__cxx1112basic_stringIcSt11char_traitsIcESaIcEEEMN11MyFtpServer15Command_HandlerEFvRKNS6_9cmd_info_EESt4hashIS5_ESt8equal_toIS5_ESaISt4pairIKS5_SC_EEE3endEv
FN:868,_ZNSt13unordered_mapINSt7__cxx1112basic_stringIcSt11char_traitsIcESaIcEEEMN11MyFtpServer15Command_HandlerEFvRKNS6_9cmd_info_EESt4hashIS5_ESt8equal_toIS5_ESaISt4pairIKS5_SC_EEE4findERSI_
FNDA:4,_ZNSt13unordered_mapINSt7__cxx1112basic_stringIcSt11char_traitsIcESaIcEEEMN11MyFtpServer15Command_HandlerEFvRKNS6_9cmd_info_EESt4hashIS5_ESt8equal_toIS5_ESaISt4pairIKS5_SC_EEE4findERSI_
DA:227,2
DA:232,2
DA:233,2
DA:347,4
DA:348,4
DA:868,4
DA:869,4
end_of_record
SF:/usr/include/c++/11/bits/allocated_ptr.h
FN:53,_ZNSt15__allocated_ptrISaISt23_Sp_counted_ptr_inplaceIN11MyFtpServer9User_InfoESaIS2_ELN9__gnu_cxx12_Lock_policyE2EEEEC2ERS7_PS6_
FNDA:104,_ZNSt15__allocated_ptrISaISt23_Sp_counted_ptr_inplaceIN11MyFtpServer9User_InfoESaIS2_ELN9__gnu_cxx12_Lock_policyE2EEEEC2ERS7_PS6_
FN:53,_ZNSt15__allocated_ptrISaISt10_List_nodeINSt7__cxx1112basic_stringIcSt11char_traitsIcESaIcEEEEEEC2ERS8_PS7_
FNDA:220,_ZNSt15__allocated_ptrISaISt10_List_nodeINSt7__cxx1112basic_stringIcSt11char_traitsIcESaIcEEEEEEC2ERS8_PS7_
FN:71,_ZNSt15__allocated_ptrISaISt23_Sp_counted_ptr_inplaceIN11MyFtpServer9User_InfoESaIS2_ELN9__gnu_cxx12_Lock_policyE2EEEED2Ev
FNDA:104,_ZNSt15__allocated_ptrISaISt23_Sp_counted_ptr_inplaceIN11MyFtpServer9User_InfoESaIS2_ELN9__gnu_cxx12_Lock_policyE2EEEED2Ev
FN:71,_ZNSt15__allocated_ptrISaISt10_List_nodeINSt7__cxx1112basic_stringIcSt11char_traitsIcESaIcEEEEEED2Ev
FNDA:220,_ZNSt15__allocated_ptrISaISt10_List_nodeINSt7__cxx1112basic_stringIcSt11char_traitsIcESaIcEEEEEED2Ev
FN:79,_ZNSt15__allocated_ptrISaISt23_Sp_counted_ptr_inplaceIN11MyFtpServer9User_InfoESaIS2_ELN9__gnu_cxx12_Lock_policyE2EEEEaSEDn
FNDA:52,_ZNSt15__allocated_ptrISaISt23_Sp_counted_ptr_inplaceIN11MyFtpServer9User_InfoESaIS2_ELN9__gnu_cxx12_Lock_policyE2EEEEaSEDn
FN:79,_ZNSt15__allocated_ptrISaISt10_List_nodeINSt7__cxx1112basic_stringIcSt11char_traitsIcESaIcEEEEEEaSEDn
FNDA:220,_ZNSt15__allocated_ptrISaISt10_List_nodeINSt7__cxx1112basic_stringIcSt11char_traitsIcESaIcEEEEEEaSEDn
FN:86,_ZNSt15__allocated_ptrISaISt23_Sp_counted_ptr_inplaceIN11MyFtpServer9User_InfoESaIS2_ELN9__gnu_cxx12_Lock_policyE2EEEE3getEv
FNDA:52,_ZNSt15__allocated_ptrISaISt23_Sp_counted_ptr_inplaceIN11MyFtpServer9User_InfoESaIS2_ELN9__gnu_cxx12_Lock_policyE2EEEE3getEv
FN:96,_ZSt18__allocate_guardedISaISt23_Sp_counted_ptr_inplaceIN11MyFtpServer9User_InfoESaIS2_ELN9__gnu_cxx12_Lock_policyE2EEEESt15__allocated_ptrIT_ERS9_
FNDA:52,_ZSt18__allocate_guardedISaISt23_Sp_counted_ptr_inplaceIN11MyFtpServer9User_InfoESaIS2_ELN9__gnu_cxx12_Lock_policyE2EEEESt15__allocated_ptrIT_ERS9_
DA:53,104
DA:54,104
DA:55,104
DA:53,220
DA:54,220
DA:55,220
DA:71,104
DA:73,104
DA:74,52
DA:75,104
DA:71,220
DA:73,220
DA:74,0
DA:75,220
DA:79,52
DA:81,52
DA:82,52
DA:79,220
DA:81,220
DA:82,220
DA:86,52
DA:96,52
DA:98,52
end_of_record
SF:/usr/include/ace/Message_Queue.inl
FN:5,_ZN22ACE_Message_Queue_BaseC2Ev
FNDA:0,_ZN22ACE_Message_Queue_BaseC2Ev
DA:5,0
DA:7,0
end_of_record
SF:/home/hksong/hksong/prjs/myftpserver/include/command_handler.h
end_of_record
SF:/usr/include/ace/Addr.inl
FN:36,_ZNK8ACE_Addr8get_typeEv
FNDA:4,_ZNK8ACE_Addr8get_typeEv
DA:36,4
DA:38,4
end_of_record
SF:/usr/include/c++/11/bits/charconv.h
FN:47,_ZNSt8__detail14__to_chars_lenImEEjT_i
FNDA:2,_ZNSt8__detail14__to_chars_lenImEEjT_i
FN:72,_ZNSt8__detail18__to_chars_10_implImEEvPcjT_
FNDA:2,_ZNSt8__detail18__to_chars_10_implImEEvPcjT_
DA:47,2
DA:52,2
DA:53,2
DA:54,2
DA:55,2
DA:58,2
DA:59,0
DA:60,0
DA:61,0
DA:62,0
DA:63,0
DA:72,2
DA:83,2
DA:84,2
DA:86,0
DA:87,0
DA:88,0
DA:89,0
DA:90,0
DA:92,2
DA:94,0
DA:95,0
DA:96,0
DA:99,2
DA:100,2
end_of_record
SF:/usr/include/ace/Log_Category.inl
FN:51,_ZN20ACE_Log_Category_TSS20log_priority_enabledE16ACE_Log_Priority
FNDA:0,_ZN20ACE_Log_Category_TSS20log_priority_enabledE16ACE_Log_Priority
FN:70,_ZN20ACE_Log_Category_TSS15conditional_setEPKciii
FNDA:0,_ZN20ACE_Log_Category_TSS15conditional_setEPKciii
FN:80,_ZN20ACE_Log_Category_TSS3logE16ACE_Log_PriorityPKcz
FNDA:0,_ZN20ACE_Log_Category_TSS3logE16ACE_Log_PriorityPKcz
FN:132,_ZN20ACE_Log_Category_TSS3logEPKc16ACE_Log_PriorityP13__va_list_tag
FNDA:0,_ZN20ACE_Log_Category_TSS3logEPKc16ACE_Log_PriorityP13__va_list_tag
FN:161,_ZNK16ACE_Log_Category13priority_maskEv
FNDA:0,_ZNK16ACE_Log_Category13priority_maskEv
DA:51,0
DA:53,0
DA:70,0
DA:75,0
DA:76,0
DA:80,0
DA:85,0
DA:87,0
DA:90,0
DA:92,0
DA:132,0
DA:136,0
DA:137,0
DA:138,0
DA:161,0
DA:163,0
end_of_record
SF:/usr/include/c++/11/ext/new_allocator.h
FN:79,_ZN9__gnu_cxx13new_allocatorIcEC2Ev
FNDA:0,_ZN9__gnu_cxx13new_allocatorIcEC2Ev
FN:79,_ZN9__gnu_cxx13new_allocatorISt4pairIKNSt7__cxx1112basic_stringIcSt11char_traitsIcESaIcEEEMN11MyFtpServer15Command_HandlerEFvRKNS9_9cmd_info_EEEEC2Ev
FNDA:2,_ZN9__gnu_cxx13new_allocatorISt4pairIKNSt7__cxx1112basic_stringIcSt11char_traitsIcESaIcEEEMN11MyFtpServer15Command_HandlerEFvRKNS9_9cmd_info_EEEEC2Ev
FN:79,_ZN9__gnu_cxx13new_allocatorISt10_List_nodeINSt7__cxx1112basic_stringIcSt11char_traitsIcESaIcEEEEEC2Ev
FNDA:54,_ZN9__gnu_cxx13new_allocatorISt10_List_nodeINSt7__cxx1112basic_stringIcSt11char_traitsIcESaIcEEEEEC2Ev
FN:79,_ZN9__gnu_cxx13new_allocatorINSt8__detail10_Hash_nodeISt4pairIKNSt7__cxx1112basic_stringIcSt11char_traitsIcESaIcEEEMN11MyFtpServer15Command_HandlerEFvRKNSB_9cmd_info_EEELb1EEEEC2Ev
FNDA:2,_ZN9__gnu_cxx13new_allocatorINSt8__detail10_Hash_nodeISt4pairIKNSt7__cxx1112basic_stringIcSt11char_traitsIcESaIcEEEMN11MyFtpServer15Command_HandlerEFvRKNSB_9cmd_info_EEELb1EEEEC2Ev
FN:79,_ZN9__gnu_cxx13new_allocatorIN11MyFtpServer9User_InfoEEC2Ev
FNDA:52,_ZN9__gnu_cxx13new_allocatorIN11MyFtpServer9User_InfoEEC2Ev
FN:79,_ZN9__gnu_cxx13new_allocatorIPNSt8__detail15_Hash_node_baseEEC2Ev
FNDA:12,_ZN9__gnu_cxx13new_allocatorIPNSt8__detail15_Hash_node_baseEEC2Ev
FN:79,_ZN9__gnu_cxx13new_allocatorISt23_Sp_counted_ptr_inplaceIN11MyFtpServer9User_InfoESaIS3_ELNS_12_Lock_policyE2EEEC2Ev
FNDA:104,_ZN9__gnu_cxx13new_allocatorISt23_Sp_counted_ptr_inplaceIN11MyFtpServer9User_InfoESaIS3_ELNS_12_Lock_policyE2EEEC2Ev
FN:82,_ZN9__gnu_cxx13new_allocatorIcEC2ERKS1_
FNDA:0,_ZN9__gnu_cxx13new_allocatorIcEC2ERKS1_
FN:82,_ZN9__gnu_cxx13new_allocatorINSt8__detail10_Hash_nodeISt4pairIKNSt7__cxx1112basic_stringIcSt11char_traitsIcESaIcEEEMN11MyFtpServer15Command_HandlerEFvRKNSB_9cmd_info_EEELb1EEEEC2ERKSK_
FNDA:2,_ZN9__gnu_cxx13new_allocatorINSt8__detail10_Hash_nodeISt4pairIKNSt7__cxx1112basic_stringIcSt11char_traitsIcESaIcEEEMN11MyFtpServer15Command_HandlerEFvRKNSB_9cmd_info_EEELb1EEEEC2ERKSK_
FN:82,_ZN9__gnu_cxx13new_allocatorIN11MyFtpServer9User_InfoEEC2ERKS3_
FNDA:156,_ZN9__gnu_cxx13new_allocatorIN11MyFtpServer9User_InfoEEC2ERKS3_
FN:89,_ZN9__gnu_cxx13new_allocatorISt23_Sp_counted_ptr_inplaceIN11MyFtpServer9User_InfoESaIS3_ELNS_12_Lock_policyE2EEED2Ev
FNDA:104,_ZN9__gnu_cxx13new_allocatorISt23_Sp_counted_ptr_inplaceIN11MyFtpServer9User_InfoESaIS3_ELNS_12_Lock_policyE2EEED2Ev
FN:89,_ZN9__gnu_cxx13new_allocatorINSt8__detail10_Hash_nodeISt4pairIKNSt7__cxx1112basic_stringIcSt11char_traitsIcESaIcEEEMN11MyFtpServer15Command_HandlerEFvRKNSB_9cmd_info_EEELb1EEEED2Ev
FNDA:4,_ZN9__gnu_cxx13new_allocatorINSt8__detail10_Hash_nodeISt4pairIKNSt7__cxx1112basic_stringIcSt11char_traitsIcESaIcEEEMN11MyFtpServer15Command_HandlerEFvRKNSB_9cmd_info_EEELb1EEEED2Ev
FN:89,_ZN9__gnu_cxx13new_allocatorIN11MyFtpServer9User_InfoEED2Ev
FNDA:208,_ZN9__gnu_cxx13new_allocatorIN11MyFtpServer9User_InfoEED2Ev
FN:89,_ZN9__gnu_cxx13new_allocatorIPNSt8__detail15_Hash_node_baseEED2Ev
FNDA:12,_ZN9__gnu_cxx13new_allocatorIPNSt8__detail15_Hash_node_baseEED2Ev
FN:89,_ZN9__gnu_cxx13new_allocatorISt10_List_nodeINSt7__cxx1112basic_stringIcSt11char_traitsIcESaIcEEEEED2Ev
FNDA:54,_ZN9__gnu_cxx13new_allocatorISt10_List_nodeINSt7__cxx1112basic_stringIcSt11char_traitsIcESaIcEEEEED2Ev
FN:89,_ZN9__gnu_cxx13new_allocatorISt4pairIKNSt7__cxx1112basic_stringIcSt11char_traitsIcESaIcEEEMN11MyFtpServer15Command_HandlerEFvRKNS9_9cmd_info_EEEED2Ev
FNDA:2,_ZN9__gnu_cxx13new_allocatorISt4pairIKNSt7__cxx1112basic_stringIcSt11char_traitsIcESaIcEEEMN11MyFtpServer15Command_HandlerEFvRKNS9_9cmd_info_EEEED2Ev
FN:89,_ZN9__gnu_cxx13new_allocatorIcED2Ev
FNDA:0,_ZN9__gnu_cxx13new_allocatorIcED2Ev
FN:103,_ZN9__gnu_cxx13new_allocatorIPNSt8__detail15_Hash_node_baseEE8allocateEmPKv
FNDA:6,_ZN9__gnu_cxx13new_allocatorIPNSt8__detail15_Hash_node_baseEE8allocateEmPKv
FN:103,_ZN9__gnu_cxx13new_allocatorISt10_List_nodeINSt7__cxx1112basic_stringIcSt11char_traitsIcESaIcEEEEE8allocateEmPKv
FNDA:220,_ZN9__gnu_cxx13new_allocatorISt10_List_nodeINSt7__cxx1112basic_stringIcSt11char_traitsIcESaIcEEEEE8allocateEmPKv
FN:103,_ZN9__gnu_cxx13new_allocatorISt23_Sp_counted_ptr_inplaceIN11MyFtpServer9User_InfoESaIS3_ELNS_12_Lock_policyE2EEE8allocateEmPKv
FNDA:52,_ZN9__gnu_cxx13new_allocatorISt23_Sp_counted_ptr_inplaceIN11MyFtpServer9User_InfoESaIS3_ELNS_12_Lock_policyE2EEE8allocateEmPKv
FN:103,_ZN9__gnu_cxx13new_allocatorINSt8__detail10_Hash_nodeISt4pairIKNSt7__cxx1112basic_stringIcSt11char_traitsIcESaIcEEEMN11MyFtpServer15Command_HandlerEFvRKNSB_9cmd_info_EEELb1EEEE8allocateEmPKv
FNDA:38,_ZN9__gnu_cxx13new_allocatorINSt8__detail10_Hash_nodeISt4pairIKNSt7__cxx1112basic_stringIcSt11char_traitsIcESaIcEEEMN11MyFtpServer15Command_HandlerEFvRKNSB_9cmd_info_EEELb1EEEE8allocateEmPKv
FN:132,_ZN9__gnu_cxx13new_allocatorIPNSt8__detail15_Hash_node_baseEE10deallocateEPS3_m
FNDA:6,_ZN9__gnu_cxx13new_allocatorIPNSt8__detail15_Hash_node_baseEE10deallocateEPS3_m
FN:132,_ZN9__gnu_cxx13new_allocatorINSt8__detail10_Hash_nodeISt4pairIKNSt7__cxx1112basic_stringIcSt11char_traitsIcESaIcEEEMN11MyFtpServer15Command_HandlerEFvRKNSB_9cmd_info_EEELb1EEEE10deallocateEPSJ_m
FNDA:38,_ZN9__gnu_cxx13new_allocatorINSt8__detail10_Hash_nodeISt4pairIKNSt7__cxx1112basic_stringIcSt11char_traitsIcESaIcEEEMN11MyFtpServer15Command_HandlerEFvRKNSB_9cmd_info_EEELb1EEEE10deallocateEPSJ_m
FN:132,_ZN9__gnu_cxx13new_allocatorISt23_Sp_counted_ptr_inplaceIN11MyFtpServer9User_InfoESaIS3_ELNS_12_Lock_policyE2EEE10deallocateEPS6_m
FNDA:52,_ZN9__gnu_cxx13new_allocatorISt23_Sp_counted_ptr_inplaceIN11MyFtpServer9User_InfoESaIS3_ELNS_12_Lock_policyE2EEE10deallocateEPS6_m
FN:132,_ZN9__gnu_cxx13new_allocatorISt10_List_nodeINSt7__cxx1112basic_stringIcSt11char_traitsIcESaIcEEEEE10deallocateEPS8_m
FNDA:220,_ZN9__gnu_cxx13new_allocatorISt10_List_nodeINSt7__cxx1112basic_stringIcSt11char_traitsIcESaIcEEEEE10deallocateEPS8_m
FN:160,_ZN9__gnu_cxx13new_allocatorINSt8__detail10_Hash_nodeISt4pairIKNSt7__cxx1112basic_stringIcSt11char_traitsIcESaIcEEEMN11MyFtpServer15Command_HandlerEFvRKNSB_9cmd_info_EEELb1EEEE9constructISI_JRKSI_EEEvPT_DpOT0_
FNDA:38,_ZN9__gnu_cxx13new_allocatorINSt8__detail10_Hash_nodeISt4pairIKNSt7__cxx1112basic_stringIcSt11char_traitsIcESaIcEEEMN11MyFtpServer15Command_HandlerEFvRKNSB_9cmd_info_EEELb1EEEE9constructISI_JRKSI_EEEvPT_DpOT0_
FN:160,_ZN9__gnu_cxx13new_allocatorISt10_List_nodeINSt7__cxx1112basic_stringIcSt11char_traitsIcESaIcEEEEE9constructIS7_JRPKcEEEvPT_DpOT0_
FNDA:208,_ZN9__gnu_cxx13new_allocatorISt10_List_nodeINSt7__cxx1112basic_stringIcSt11char_traitsIcESaIcEEEEE9constructIS7_JRPKcEEEvPT_DpOT0_
FN:160,_ZN9__gnu_cxx13new_allocatorISt10_List_nodeINSt7__cxx1112basic_stringIcSt11char_traitsIcESaIcEEEEE9constructIS7_JRA82_KcEEEvPT_DpOT0_
FNDA:2,_ZN9__gnu_cxx13new_allocatorISt10_List_nodeINSt7__cxx1112basic_stringIcSt11char_traitsIcESaIcEEEEE9constructIS7_JRA82_KcEEEvPT_DpOT0_
FN:160,_ZN9__gnu_cxx13new_allocatorISt10_List_nodeINSt7__cxx1112basic_stringIcSt11char_traitsIcESaIcEEEEE9constructIS7_JRA2048_cEEEvPT_DpOT0_
FNDA:10,_ZN9__gnu_cxx13new_allocatorISt10_List_nodeINSt7__cxx1112basic_stringIcSt11char_traitsIcESaIcEEEEE9constructIS7_JRA2048_cEEEvPT_DpOT0_
FN:160,_ZN9__gnu_cxx13new_allocatorIN11MyFtpServer9User_InfoEE9constructIS2_JEEEvPT_DpOT0_
FNDA:52,_ZN9__gnu_cxx13new_allocatorIN11MyFtpServer9User_InfoEE9constructIS2_JEEEvPT_DpOT0_
FN:166,_ZN9__gnu_cxx13new_allocatorISt10_List_nodeINSt7__cxx1112basic_stringIcSt11char_traitsIcESaIcEEEEE7destroyIS7_EEvPT_
FNDA:220,_ZN9__gnu_cxx13new_allocatorISt10_List_nodeINSt7__cxx1112basic_stringIcSt11char_traitsIcESaIcEEEEE7destroyIS7_EEvPT_
FN:166,_ZN9__gnu_cxx13new_allocatorINSt8__detail10_Hash_nodeISt4pairIKNSt7__cxx1112basic_stringIcSt11char_traitsIcESaIcEEEMN11MyFtpServer15Command_HandlerEFvRKNSB_9cmd_info_EEELb1EEEE7destroyISI_EEvPT_
FNDA:38,_ZN9__gnu_cxx13new_allocatorINSt8__detail10_Hash_nodeISt4pairIKNSt7__cxx1112basic_stringIcSt11char_traitsIcESaIcEEEMN11MyFtpServer15Command_HandlerEFvRKNSB_9cmd_info_EEELb1EEEE7destroyISI_EEvPT_
FN:166,_ZN9__gnu_cxx13new_allocatorIN11MyFtpServer9User_InfoEE7destroyIS2_EEvPT_
FNDA:52,_ZN9__gnu_cxx13new_allocatorIN11MyFtpServer9User_InfoEE7destroyIS2_EEvPT_
FN:197,_ZNK9__gnu_cxx13new_allocatorISt10_List_nodeINSt7__cxx1112basic_stringIcSt11char_traitsIcESaIcEEEEE11_M_max_sizeEv
FNDA:220,_ZNK9__gnu_cxx13new_allocatorISt10_List_nodeINSt7__cxx1112basic_stringIcSt11char_traitsIcESaIcEEEEE11_M_max_sizeEv
FN:197,_ZNK9__gnu_cxx13new_allocatorIPNSt8__detail15_Hash_node_baseEE11_M_max_sizeEv
FNDA:6,_ZNK9__gnu_cxx13new_allocatorIPNSt8__detail15_Hash_node_baseEE11_M_max_sizeEv
FN:197,_ZNK9__gnu_cxx13new_allocatorISt23_Sp_counted_ptr_inplaceIN11MyFtpServer9User_InfoESaIS3_ELNS_12_Lock_policyE2EEE11_M_max_sizeEv
FNDA:52,_ZNK9__gnu_cxx13new_allocatorISt23_Sp_counted_ptr_inplaceIN11MyFtpServer9User_InfoESaIS3_ELNS_12_Lock_policyE2EEE11_M_max_sizeEv
FN:197,_ZNK9__gnu_cxx13new_allocatorINSt8__detail10_Hash_nodeISt4pairIKNSt7__cxx1112basic_stringIcSt11char_traitsIcESaIcEEEMN11MyFtpServer15Command_HandlerEFvRKNSB_9cmd_info_EEELb1EEEE11_M_max_sizeEv
FNDA:38,_ZNK9__gnu_cxx13new_allocatorINSt8__detail10_Hash_nodeISt4pairIKNSt7__cxx1112basic_stringIcSt11char_traitsIcESaIcEEEMN11MyFtpServer15Command_HandlerEFvRKNSB_9cmd_info_EEELb1EEEE11_M_max_sizeEv
DA:79,104
DA:79,12
DA:79,2
DA:79,54
DA:79,52
DA:79,2
DA:79,0
DA:82,2
DA:82,156
DA:82,0
DA:89,104
DA:89,12
DA:89,4
DA:89,208
DA:89,54
DA:89,2
DA:89,0
DA:103,38
DA:111,38
DA:115,0
DA:116,0
DA:117,0
DA:127,38
DA:103,52
DA:111,52
DA:115,0
DA:116,0
DA:117,0
DA:127,52
DA:103,6
DA:111,6
DA:115,0
DA:116,0
DA:117,0
DA:127,6
DA:103,220
DA:111,220
DA:115,0
DA:116,0
DA:117,0
DA:127,220
DA:132,52
DA:145,52
DA:132,38
DA:145,38
DA:132,6
DA:145,6
DA:132,220
DA:145,220
DA:160,38
DA:162,38
DA:160,52
DA:162,104
DA:160,10
DA:162,10
DA:160,2
DA:162,2
DA:160,208
DA:162,208
DA:166,52
DA:168,52
DA:166,38
DA:168,38
DA:166,220
DA:168,220
DA:197,38
DA:200,38
DA:197,52
DA:200,52
DA:197,6
DA:200,6
DA:197,220
DA:200,220
end_of_record
SF:/usr/include/ace/OS_NS_sys_stat.inl
FN:154,_ZN6ACE_OS5mkdirEPKcj
FNDA:2,_ZN6ACE_OS5mkdirEPKcj
FN:207,_ZN6ACE_OS4statEPKcP4stat
FNDA:2,_ZN6ACE_OS4statEPKcP4stat
DA:154,2
DA:169,2
DA:207,2
DA:247,2
end_of_record
SF:/home/hksong/hksong/prjs/myftpserver/include/data_handler.h
FN:38,_ZN11MyFtpServer12Data_HandlerC2ERKi
FNDA:2,_ZN11MyFtpServer12Data_HandlerC2ERKi
FN:79,_ZN11MyFtpServer12Data_Handler13get_data_linkEv
FNDA:0,_ZN11MyFtpServer12Data_Handler13get_data_linkEv
FN:82,_ZN11MyFtpServer12Data_Handler13set_file_pathERKNSt7__cxx1112basic_stringIcSt11char_traitsIcESaIcEEE
FNDA:4,_ZN11MyFtpServer12Data_Handler13set_file_pathERKNSt7__cxx1112basic_stringIcSt11char_traitsIcESaIcEEE
DA:38,2
DA:39,2
DA:40,2
DA:41,2
DA:42,2
DA:43,2
DA:79,0
DA:82,4
end_of_record
SF:/usr/include/ace/Condition_Attributes.inl
FN:5,_ZN24ACE_Condition_AttributesC2Ei
FNDA:0,_ZN24ACE_Condition_AttributesC2Ei
FN:11,_ZN24ACE_Condition_AttributesD2Ev
FNDA:0,_ZN24ACE_Condition_AttributesD2Ev
DA:5,0
DA:7,0
DA:8,0
DA:11,0
DA:13,0
DA:14,0
end_of_record
SF:/usr/include/ace/IPC_SAP.inl
FN:7,_ZN11ACE_IPC_SAPD2Ev
FNDA:114,_ZN11ACE_IPC_SAPD2Ev
FN:13,_ZNK11ACE_IPC_SAP10get_handleEv
FNDA:52,_ZNK11ACE_IPC_SAP10get_handleEv
FN:22,_ZN11ACE_IPC_SAP10set_handleEi
FNDA:0,_ZN11ACE_IPC_SAP10set_handleEi
DA:7,114
DA:10,114
DA:13,52
DA:16,52
DA:22,0
DA:25,0
DA:26,0
end_of_record
SF:/usr/include/c++/11/initializer_list
FN:71,_ZNKSt16initializer_listISt4pairIKNSt7__cxx1112basic_stringIcSt11char_traitsIcESaIcEEEMN11MyFtpServer15Command_HandlerEFvRKNS8_9cmd_info_EEEE4sizeEv
FNDA:2,_ZNKSt16initializer_listISt4pairIKNSt7__cxx1112basic_stringIcSt11char_traitsIcESaIcEEEMN11MyFtpServer15Command_HandlerEFvRKNS8_9cmd_info_EEEE4sizeEv
FN:75,_ZNKSt16initializer_listISt4pairIKNSt7__cxx1112basic_stringIcSt11char_traitsIcESaIcEEEMN11MyFtpServer15Command_HandlerEFvRKNS8_9cmd_info_EEEE5beginEv
FNDA:4,_ZNKSt16initializer_listISt4pairIKNSt7__cxx1112basic_stringIcSt11char_traitsIcESaIcEEEMN11MyFtpServer15Command_HandlerEFvRKNS8_9cmd_info_EEEE5beginEv
FN:79,_ZNKSt16initializer_listISt4pairIKNSt7__cxx1112basic_stringIcSt11char_traitsIcESaIcEEEMN11MyFtpServer15Command_HandlerEFvRKNS8_9cmd_info_EEEE3endEv
FNDA:2,_ZNKSt16initializer_listISt4pairIKNSt7__cxx1112basic_stringIcSt11char_traitsIcESaIcEEEMN11MyFtpServer15Command_HandlerEFvRKNS8_9cmd_info_EEEE3endEv
DA:71,2
DA:75,4
DA:79,2
end_of_record
SF:/usr/include/ace/Guard_T.inl
FN:9,_ZN9ACE_GuardI16ACE_Thread_MutexE7acquireEv
FNDA:0,_ZN9ACE_GuardI16ACE_Thread_MutexE7acquireEv
FN:21,_ZN9ACE_GuardI16ACE_Thread_MutexE7releaseEv
FNDA:0,_ZN9ACE_GuardI16ACE_Thread_MutexE7releaseEv
FN:33,_ZN9ACE_GuardI16ACE_Thread_MutexEC2ERS0_
FNDA:0,_ZN9ACE_GuardI16ACE_Thread_MutexEC2ERS0_
FN:62,_ZN9ACE_GuardI16ACE_Thread_MutexED2Ev
FNDA:0,_ZN9ACE_GuardI16ACE_Thread_MutexED2Ev
FN:68,_ZNK9ACE_GuardI16ACE_Thread_MutexE6lockedEv
FNDA:0,_ZNK9ACE_GuardI16ACE_Thread_MutexE6lockedEv
DA:9,0
DA:11,0
DA:21,0
DA:23,0
DA:24,0
DA:27,0
DA:28,0
DA:33,0
DA:34,0
DA:35,0
DA:37,0
DA:38,0
DA:62,0
DA:64,0
DA:65,0
DA:68,0
DA:70,0
end_of_record
SF:/usr/include/c++/11/bits/shared_ptr_base.h
FN:126,_ZNSt16_Sp_counted_baseILN9__gnu_cxx12_Lock_policyE2EEC2Ev
FNDA:52,_ZNSt16_Sp_counted_baseILN9__gnu_cxx12_Lock_policyE2EEC2Ev
FN:130,_ZNSt16_Sp_counted_baseILN9__gnu_cxx12_Lock_policyE2EED2Ev
FNDA:52,_ZNSt16_Sp_counted_baseILN9__gnu_cxx12_Lock_policyE2EED2Ev
FN:130,_ZNSt16_Sp_counted_baseILN9__gnu_cxx12_Lock_policyE2EED0Ev
FNDA:0,_ZNSt16_Sp_counted_baseILN9__gnu_cxx12_Lock_policyE2EED0Ev
FN:140,_ZNSt16_Sp_counted_baseILN9__gnu_cxx12_Lock_policyE2EE10_M_destroyEv
FNDA:0,_ZNSt16_Sp_counted_baseILN9__gnu_cxx12_Lock_policyE2EE10_M_destroyEv
FN:161,_ZNSt16_Sp_counted_baseILN9__gnu_cxx12_Lock_policyE2EE10_M_releaseEv
FNDA:52,_ZNSt16_Sp_counted_baseILN9__gnu_cxx12_Lock_policyE2EE10_M_releaseEv
FN:385,_ZNSt14_Sp_ebo_helperILi0ESaIN11MyFtpServer9User_InfoEELb1EEC2ERKS2_
FNDA:52,_ZNSt14_Sp_ebo_helperILi0ESaIN11MyFtpServer9User_InfoEELb1EEC2ERKS2_
FN:389,_ZNSt14_Sp_ebo_helperILi0ESaIN11MyFtpServer9User_InfoEELb1EE6_S_getERS3_
FNDA:104,_ZNSt14_Sp_ebo_helperILi0ESaIN11MyFtpServer9User_InfoEELb1EE6_S_getERS3_
FN:479,_ZNSt19_Sp_make_shared_tag5_S_tiEv
FNDA:0,_ZNSt19_Sp_make_shared_tag5_S_tiEv
FN:502,_ZNSt23_Sp_counted_ptr_inplaceIN11MyFtpServer9User_InfoESaIS1_ELN9__gnu_cxx12_Lock_policyE2EE5_ImplC2ES2_
FNDA:52,_ZNSt23_Sp_counted_ptr_inplaceIN11MyFtpServer9User_InfoESaIS1_ELN9__gnu_cxx12_Lock_policyE2EE5_ImplC2ES2_
FN:504,_ZNSt23_Sp_counted_ptr_inplaceIN11MyFtpServer9User_InfoESaIS1_ELN9__gnu_cxx12_Lock_policyE2EE5_Impl8_M_allocEv
FNDA:104,_ZNSt23_Sp_counted_ptr_inplaceIN11MyFtpServer9User_InfoESaIS1_ELN9__gnu_cxx12_Lock_policyE2EE5_Impl8_M_allocEv
FN:514,_ZNSt23_Sp_counted_ptr_inplaceIN11MyFtpServer9User_InfoESaIS1_ELN9__gnu_cxx12_Lock_policyE2EEC2IJEEES2_DpOT_
FNDA:52,_ZNSt23_Sp_counted_ptr_inplaceIN11MyFtpServer9User_InfoESaIS1_ELN9__gnu_cxx12_Lock_policyE2EEC2IJEEES2_DpOT_
FN:523,_ZNSt23_Sp_counted_ptr_inplaceIN11MyFtpServer9User_InfoESaIS1_ELN9__gnu_cxx12_Lock_policyE2EED2Ev
FNDA:52,_ZNSt23_Sp_counted_ptr_inplaceIN11MyFtpServer9User_InfoESaIS1_ELN9__gnu_cxx12_Lock_policyE2EED2Ev
FN:523,_ZNSt23_Sp_counted_ptr_inplaceIN11MyFtpServer9User_InfoESaIS1_ELN9__gnu_cxx12_Lock_policyE2EED0Ev
FNDA:0,_ZNSt23_Sp_counted_ptr_inplaceIN11MyFtpServer9User_InfoESaIS1_ELN9__gnu_cxx12_Lock_policyE2EED0Ev
FN:526,_ZNSt23_Sp_counted_ptr_inplaceIN11MyFtpServer9User_InfoESaIS1_ELN9__gnu_cxx12_Lock_policyE2EE10_M_disposeEv
FNDA:52,_ZNSt23_Sp_counted_ptr_inplaceIN11MyFtpServer9User_InfoESaIS1_ELN9__gnu_cxx12_Lock_policyE2EE10_M_disposeEv
FN:533,_ZNSt23_Sp_counted_ptr_inplaceIN11MyFtpServer9User_InfoESaIS1_ELN9__gnu_cxx12_Lock_policyE2EE10_M_destroyEv
FNDA:52,_ZNSt23_Sp_counted_ptr_inplaceIN11MyFtpServer9User_InfoESaIS1_ELN9__gnu_cxx12_Lock_policyE2EE10_M_destroyEv
FN:546,_ZNSt23_Sp_counted_ptr_inplaceIN11MyFtpServer9User_InfoESaIS1_ELN9__gnu_cxx12_Lock_policyE2EE14_M_get_deleterERKSt9type_info
FNDA:0,_ZNSt23_Sp_counted_ptr_inplaceIN11MyFtpServer9User_InfoESaIS1_ELN9__gnu_cxx12_Lock_policyE2EE14_M_get_deleterERKSt9type_info
FN:565,_ZNSt23_Sp_counted_ptr_inplaceIN11MyFtpServer9User_InfoESaIS1_ELN9__gnu_cxx12_Lock_policyE2EE6_M_ptrEv
FNDA:156,_ZNSt23_Sp_counted_ptr_inplaceIN11MyFtpServer9User_InfoESaIS1_ELN9__gnu_cxx12_Lock_policyE2EE6_M_ptrEv
FN:643,_ZNSt14__shared_countILN9__gnu_cxx12_Lock_policyE2EEC2IN11MyFtpServer9User_InfoESaIS5_EJEEERPT_St20_Sp_alloc_shared_tagIT0_EDpOT1_
FNDA:52,_ZNSt14__shared_countILN9__gnu_cxx12_Lock_policyE2EEC2IN11MyFtpServer9User_InfoESaIS5_EJEEERPT_St20_Sp_alloc_shared_tagIT0_EDpOT1_
FN:702,_ZNSt14__shared_countILN9__gnu_cxx12_Lock_policyE2EED2Ev
FNDA:52,_ZNSt14__shared_countILN9__gnu_cxx12_Lock_policyE2EED2Ev
FN:984,_ZNKSt19__shared_ptr_accessIN11MyFtpServer9User_InfoELN9__gnu_cxx12_Lock_policyE2ELb0ELb0EEptEv
FNDA:450,_ZNKSt19__shared_ptr_accessIN11MyFtpServer9User_InfoELN9__gnu_cxx12_Lock_policyE2ELb0ELb0EEptEv
FN:992,_ZNKSt19__shared_ptr_accessIN11MyFtpServer9User_InfoELN9__gnu_cxx12_Lock_policyE2ELb0ELb0EE6_M_getEv
FNDA:450,_ZNKSt19__shared_ptr_accessIN11MyFtpServer9User_InfoELN9__gnu_cxx12_Lock_policyE2ELb0ELb0EE6_M_getEv
FN:1154,_ZNSt12__shared_ptrIN11MyFtpServer9User_InfoELN9__gnu_cxx12_Lock_policyE2EED2Ev
FNDA:52,_ZNSt12__shared_ptrIN11MyFtpServer9User_InfoELN9__gnu_cxx12_Lock_policyE2EED2Ev
FN:1295,_ZNKSt12__shared_ptrIN11MyFtpServer9User_InfoELN9__gnu_cxx12_Lock_policyE2EE3getEv
FNDA:450,_ZNKSt12__shared_ptrIN11MyFtpServer9User_InfoELN9__gnu_cxx12_Lock_policyE2EE3getEv
FN:1341,_ZNSt12__shared_ptrIN11MyFtpServer9User_InfoELN9__gnu_cxx12_Lock_policyE2EEC2ISaIS1_EJEEESt20_Sp_alloc_shared_tagIT_EDpOT0_
FNDA:52,_ZNSt12__shared_ptrIN11MyFtpServer9User_InfoELN9__gnu_cxx12_Lock_policyE2EEC2ISaIS1_EJEEESt20_Sp_alloc_shared_tagIT_EDpOT0_
FN:1386,_ZNSt12__shared_ptrIN11MyFtpServer9User_InfoELN9__gnu_cxx12_Lock_policyE2EE31_M_enable_shared_from_this_withIS1_S1_EENSt9enable_ifIXntsrNS4_15__has_esft_baseIT0_vEE5valueEvE4typeEPT_
FNDA:52,_ZNSt12__shared_ptrIN11MyFtpServer9User_InfoELN9__gnu_cxx12_Lock_policyE2EE31_M_enable_shared_from_this_withIS1_S1_EENSt9enable_ifIXntsrNS4_15__has_esft_baseIT0_vEE5valueEvE4typeEPT_
DA:126,52
DA:127,52
DA:130,0
DA:131,0
DA:130,52
DA:131,52
DA:140,0
DA:141,0
DA:161,52
DA:165,104
DA:168,52
DA:180,52
DA:181,52
DA:184,52
DA:187,52
DA:385,52
DA:389,104
DA:479,0
DA:482,0
DA:502,52
DA:504,104
DA:514,52
DA:515,52
DA:519,52
DA:521,52
DA:523,0
DA:523,52
DA:526,52
DA:528,52
DA:529,52
DA:533,52
DA:535,52
DA:536,52
DA:537,52
DA:538,52
DA:546,0
DA:548,0
DA:553,0
DA:554,0
DA:556,0
DA:561,0
DA:562,0
DA:565,156
DA:643,52
DA:647,52
DA:648,52
DA:649,52
DA:650,52
DA:652,52
DA:653,52
DA:654,52
DA:655,52
DA:702,52
DA:704,52
DA:705,52
DA:706,52
DA:984,450
DA:987,450
DA:992,450
DA:993,450
DA:1154,52
DA:1295,450
DA:1296,450
DA:1341,52
DA:1342,52
DA:1343,52
DA:1386,52
DA:1387,52
end_of_record
SF:/usr/include/c++/11/bits/stl_pair.h
FN:314,_ZNSt4pairIKNSt7__cxx1112basic_stringIcSt11char_traitsIcESaIcEEEMN11MyFtpServer15Command_HandlerEFvRKNS7_9cmd_info_EEEC2ERKSE_
FNDA:38,_ZNSt4pairIKNSt7__cxx1112basic_stringIcSt11char_traitsIcESaIcEEEMN11MyFtpServer15Command_HandlerEFvRKNS7_9cmd_info_EEEC2ERKSE_
FN:352,_ZNSt4pairINSt8__detail14_Node_iteratorIS_IKNSt7__cxx1112basic_stringIcSt11char_traitsIcESaIcEEEMN11MyFtpServer15Command_HandlerEFvRKNS9_9cmd_info_EEELb0ELb1EEEbEC2IRSH_bLb1EEEOT_OT0_
FNDA:38,_ZNSt4pairINSt8__detail14_Node_iteratorIS_IKNSt7__cxx1112basic_stringIcSt11char_traitsIcESaIcEEEMN11MyFtpServer15Command_HandlerEFvRKNS9_9cmd_info_EEELb0ELb1EEEbEC2IRSH_bLb1EEEOT_OT0_
FN:352,_ZNSt4pairINSt8__detail14_Node_iteratorIS_IKNSt7__cxx1112basic_stringIcSt11char_traitsIcESaIcEEEMN11MyFtpServer15Command_HandlerEFvRKNS9_9cmd_info_EEELb0ELb1EEEbEC2ISH_bLb1EEEOT_OT0_
FNDA:0,_ZNSt4pairINSt8__detail14_Node_iteratorIS_IKNSt7__cxx1112basic_stringIcSt11char_traitsIcESaIcEEEMN11MyFtpServer15Command_HandlerEFvRKNS9_9cmd_info_EEELb0ELb1EEEbEC2ISH_bLb1EEEOT_OT0_
FN:352,_ZNSt4pairIKNSt7__cxx1112basic_stringIcSt11char_traitsIcESaIcEEEMN11MyFtpServer15Command_HandlerEFvRKNS7_9cmd_info_EEEC1IRA4_KcSD_Lb1EEEOT_OT0_
FNDA:8,_ZNSt4pairIKNSt7__cxx1112basic_stringIcSt11char_traitsIcESaIcEEEMN11MyFtpServer15Command_HandlerEFvRKNS7_9cmd_info_EEEC1IRA4_KcSD_Lb1EEEOT_OT0_
FN:352,_ZNSt4pairIKNSt7__cxx1112basic_stringIcSt11char_traitsIcESaIcEEEMN11MyFtpServer15Command_HandlerEFvRKNS7_9cmd_info_EEEC1IRA5_KcSD_Lb1EEEOT_OT0_
FNDA:30,_ZNSt4pairIKNSt7__cxx1112basic_stringIcSt11char_traitsIcESaIcEEEMN11MyFtpServer15Command_HandlerEFvRKNS7_9cmd_info_EEEC1IRA5_KcSD_Lb1EEEOT_OT0_
DA:314,38
DA:352,38
DA:353,38
DA:352,0
DA:353,0
DA:352,8
DA:353,8
DA:352,30
DA:353,30
end_of_record
SF:/usr/include/c++/11/bits/stl_iterator_base_types.h
FN:238,_ZSt19__iterator_categoryIPcENSt15iterator_traitsIT_E17iterator_categoryERKS2_
FNDA:0,_ZSt19__iterator_categoryIPcENSt15iterator_traitsIT_E17iterator_categoryERKS2_
FN:238,_ZSt19__iterator_categoryIPKcENSt15iterator_traitsIT_E17iterator_categoryERKS3_
FNDA:736,_ZSt19__iterator_categoryIPKcENSt15iterator_traitsIT_E17iterator_categoryERKS3_
DA:238,0
DA:239,0
DA:238,736
DA:239,736
end_of_record
SF:/usr/include/c++/11/bits/list.tcc
FN:66,_ZNSt7__cxx1110_List_baseINS_12basic_stringIcSt11char_traitsIcESaIcEEESaIS5_EE8_M_clearEv
FNDA:54,_ZNSt7__cxx1110_List_baseINS_12basic_stringIcSt11char_traitsIcESaIcEEESaIS5_EE8_M_clearEv
DA:66,54
DA:70,54
DA:71,66
DA:73,12
DA:74,12
DA:75,12
DA:77,12
DA:81,12
DA:83,54
end_of_record
SF:/usr/include/ace/Message_Block.inl
FN:210,_ZNK17ACE_Message_Block12msg_priorityEv
FNDA:0,_ZNK17ACE_Message_Block12msg_priorityEv
FN:438,_ZN17ACE_Message_Block4nextEPS_
FNDA:0,_ZN17ACE_Message_Block4nextEPS_
FN:445,_ZNK17ACE_Message_Block4nextEv
FNDA:0,_ZNK17ACE_Message_Block4nextEv
FN:452,_ZN17ACE_Message_Block4prevEPS_
FNDA:0,_ZN17ACE_Message_Block4prevEPS_
FN:459,_ZNK17ACE_Message_Block4prevEv
FNDA:0,_ZNK17ACE_Message_Block4prevEv
DA:210,0
DA:213,0
DA:438,0
DA:441,0
DA:442,0
DA:445,0
DA:448,0
DA:452,0
DA:455,0
DA:456,0
DA:459,0
DA:462,0
end_of_record
SF:/usr/include/ace/Null_Condition.h
FN:44,_ZN13ACE_ConditionI14ACE_Null_MutexEC2ERKS0_RK24ACE_Condition_AttributesPKcPv
FNDA:104,_ZN13ACE_ConditionI14ACE_Null_MutexEC2ERKS0_RK24ACE_Condition_AttributesPKcPv
FN:56,_ZN13ACE_ConditionI14ACE_Null_MutexE4waitEPK14ACE_Time_Value
FNDA:0,_ZN13ACE_ConditionI14ACE_Null_MutexE4waitEPK14ACE_Time_Value
FN:63,_ZN13ACE_ConditionI14ACE_Null_MutexE6signalEv
FNDA:0,_ZN13ACE_ConditionI14ACE_Null_MutexE6signalEv
FN:66,_ZN13ACE_ConditionI14ACE_Null_MutexE9broadcastEv
FNDA:0,_ZN13ACE_ConditionI14ACE_Null_MutexE9broadcastEv
DA:44,104
DA:48,104
DA:56,0
DA:63,0
DA:66,0
end_of_record
SF:/usr/include/c++/11/bits/hashtable_policy.h
FN:93,_ZNKSt8__detail10_Select1stclIRKSt4pairIKNSt7__cxx1112basic_stringIcSt11char_traitsIcESaIcEEEMN11MyFtpServer15Command_HandlerEFvRKNSA_9cmd_info_EEEEEDTcl3getILi0EEcl7forwardIT_Efp_EEEOSK_
FNDA:40,_ZNKSt8__detail10_Select1stclIRKSt4pairIKNSt7__cxx1112basic_stringIcSt11char_traitsIcESaIcEEEMN11MyFtpServer15Command_HandlerEFvRKNSA_9cmd_info_EEEEEDTcl3getILi0EEcl7forwardIT_Efp_EEEOSK_
FN:162,_ZNSt8__detail10_AllocNodeISaINS_10_Hash_nodeISt4pairIKNSt7__cxx1112basic_stringIcSt11char_traitsIcESaIcEEEMN11MyFtpServer15Command_HandlerEFvRKNSA_9cmd_info_EEELb1EEEEEC2ERNS_16_Hashtable_allocISJ_EE
FNDA:38,_ZNSt8__detail10_AllocNodeISaINS_10_Hash_nodeISt4pairIKNSt7__cxx1112basic_stringIcSt11char_traitsIcESaIcEEEMN11MyFtpServer15Command_HandlerEFvRKNSA_9cmd_info_EEELb1EEEEEC2ERNS_16_Hashtable_allocISJ_EE
FN:167,_ZNKSt8__detail10_AllocNodeISaINS_10_Hash_nodeISt4pairIKNSt7__cxx1112basic_stringIcSt11char_traitsIcESaIcEEEMN11MyFtpServer15Command_HandlerEFvRKNSA_9cmd_info_EEELb1EEEEEclIRKSH_EEPSI_OT_
FNDA:38,_ZNKSt8__detail10_AllocNodeISaINS_10_Hash_nodeISt4pairIKNSt7__cxx1112basic_stringIcSt11char_traitsIcESaIcEEEMN11MyFtpServer15Command_HandlerEFvRKNSA_9cmd_info_EEELb1EEEEEclIRKSH_EEPSI_OT_
FN:219,_ZNSt8__detail15_Hash_node_baseC2Ev
FNDA:58,_ZNSt8__detail15_Hash_node_baseC2Ev
FN:237,_ZNSt8__detail21_Hash_node_value_baseISt4pairIKNSt7__cxx1112basic_stringIcSt11char_traitsIcESaIcEEEMN11MyFtpServer15Command_HandlerEFvRKNS9_9cmd_info_EEEE9_M_valptrEv
FNDA:78,_ZNSt8__detail21_Hash_node_value_baseISt4pairIKNSt7__cxx1112basic_stringIcSt11char_traitsIcESaIcEEEMN11MyFtpServer15Command_HandlerEFvRKNS9_9cmd_info_EEEE9_M_valptrEv
FN:241,_ZNKSt8__detail21_Hash_node_value_baseISt4pairIKNSt7__cxx1112basic_stringIcSt11char_traitsIcESaIcEEEMN11MyFtpServer15Command_HandlerEFvRKNS9_9cmd_info_EEEE9_M_valptrEv
FNDA:2,_ZNKSt8__detail21_Hash_node_value_baseISt4pairIKNSt7__cxx1112basic_stringIcSt11char_traitsIcESaIcEEEMN11MyFtpServer15Command_HandlerEFvRKNS9_9cmd_info_EEEE9_M_valptrEv
FN:249,_ZNKSt8__detail21_Hash_node_value_baseISt4pairIKNSt7__cxx1112basic_stringIcSt11char_traitsIcESaIcEEEMN11MyFtpServer15Command_HandlerEFvRKNS9_9cmd_info_EEEE4_M_vEv
FNDA:2,_ZNKSt8__detail21_Hash_node_value_baseISt4pairIKNSt7__cxx1112basic_stringIcSt11char_traitsIcESaIcEEEMN11MyFtpServer15Command_HandlerEFvRKNS9_9cmd_info_EEEE4_M_vEv
FN:282,_ZNKSt8__detail10_Hash_nodeISt4pairIKNSt7__cxx1112basic_stringIcSt11char_traitsIcESaIcEEEMN11MyFtpServer15Command_HandlerEFvRKNS9_9cmd_info_EEELb1EE7_M_nextEv
FNDA:116,_ZNKSt8__detail10_Hash_nodeISt4pairIKNSt7__cxx1112basic_stringIcSt11char_traitsIcESaIcEEEMN11MyFtpServer15Command_HandlerEFvRKNS9_9cmd_info_EEELb1EE7_M_nextEv
FN:295,_ZNSt8__detail19_Node_iterator_baseISt4pairIKNSt7__cxx1112basic_stringIcSt11char_traitsIcESaIcEEEMN11MyFtpServer15Command_HandlerEFvRKNS9_9cmd_info_EEELb1EEC2EPNS_10_Hash_nodeISG_Lb1EEE
FNDA:46,_ZNSt8__detail19_Node_iterator_baseISt4pairIKNSt7__cxx1112basic_stringIcSt11char_traitsIcESaIcEEEMN11MyFtpServer15Command_HandlerEFvRKNS9_9cmd_info_EEELb1EEC2EPNS_10_Hash_nodeISG_Lb1EEE
FN:303,_ZNSt8__detaileqERKNS_19_Node_iterator_baseISt4pairIKNSt7__cxx1112basic_stringIcSt11char_traitsIcESaIcEEEMN11MyFtpServer15Command_HandlerEFvRKNS9_9cmd_info_EEELb1EEESJ_
FNDA:4,_ZNSt8__detaileqERKNS_19_Node_iterator_baseISt4pairIKNSt7__cxx1112basic_stringIcSt11char_traitsIcESaIcEEEMN11MyFtpServer15Command_HandlerEFvRKNS9_9cmd_info_EEELb1EEESJ_
FN:338,_ZNSt8__detail14_Node_iteratorISt4pairIKNSt7__cxx1112basic_stringIcSt11char_traitsIcESaIcEEEMN11MyFtpServer15Command_HandlerEFvRKNS9_9cmd_info_EEELb0ELb1EEC2EPNS_10_Hash_nodeISG_Lb1EEE
FNDA:46,_ZNSt8__detail14_Node_iteratorISt4pairIKNSt7__cxx1112basic_stringIcSt11char_traitsIcESaIcEEEMN11MyFtpServer15Command_HandlerEFvRKNS9_9cmd_info_EEELb0ELb1EEC2EPNS_10_Hash_nodeISG_Lb1EEE
FN:346,_ZNKSt8__detail14_Node_iteratorISt4pairIKNSt7__cxx1112basic_stringIcSt11char_traitsIcESaIcEEEMN11MyFtpServer15Command_HandlerEFvRKNS9_9cmd_info_EEELb0ELb1EEptEv
FNDA:2,_ZNKSt8__detail14_Node_iteratorISt4pairIKNSt7__cxx1112basic_stringIcSt11char_traitsIcESaIcEEEMN11MyFtpServer15Command_HandlerEFvRKNS9_9cmd_info_EEELb0ELb1EEptEv
FN:428,_ZNKSt8__detail18_Mod_range_hashingclEmm
FNDA:366,_ZNKSt8__detail18_Mod_range_hashingclEmm
FN:446,_ZNSt8__detail20_Prime_rehash_policyC2Ef
FNDA:4,_ZNSt8__detail20_Prime_rehash_policyC2Ef
FN:473,_ZNKSt8__detail20_Prime_rehash_policy8_M_stateEv
FNDA:54,_ZNKSt8__detail20_Prime_rehash_policy8_M_stateEv
FN:481,_ZNSt8__detail20_Prime_rehash_policy8_M_resetEm
FNDA:0,_ZNSt8__detail20_Prime_rehash_policy8_M_resetEm
FN:815,_ZNSt8__detail12_Insert_baseINSt7__cxx1112basic_stringIcSt11char_traitsIcESaIcEEESt4pairIKS6_MN11MyFtpServer15Command_HandlerEFvRKNS9_9cmd_info_EEESaISG_ENS_10_Select1stESt8equal_toIS6_ESt4hashIS6_ENS_18_Mod_range_hashingENS_20_Default_ranged_hashENS_20_Prime_rehash_policyENS_17_Hashtable_traitsILb1ELb0ELb1EEEE20_M_conjure_hashtableEv
FNDA:38,_ZNSt8__detail12_Insert_baseINSt7__cxx1112basic_stringIcSt11char_traitsIcESaIcEEESt4pairIKS6_MN11MyFtpServer15Command_HandlerEFvRKNS9_9cmd_info_EEESaISG_ENS_10_Select1stESt8equal_toIS6_ESt4hashIS6_ENS_18_Mod_range_hashingENS_20_Default_ranged_hashENS_20_Prime_rehash_policyENS_17_Hashtable_traitsILb1ELb0ELb1EEEE20_M_conjure_hashtableEv
FN:840,_ZNSt8__detail12_Insert_baseINSt7__cxx1112basic_stringIcSt11char_traitsIcESaIcEEESt4pairIKS6_MN11MyFtpServer15Command_HandlerEFvRKNS9_9cmd_info_EEESaISG_ENS_10_Select1stESt8equal_toIS6_ESt4hashIS6_ENS_18_Mod_range_hashingENS_20_Default_ranged_hashENS_20_Prime_rehash_policyENS_17_Hashtable_traitsILb1ELb0ELb1EEEE6insertERKSG_
FNDA:38,_ZNSt8__detail12_Insert_baseINSt7__cxx1112basic_stringIcSt11char_traitsIcESaIcEEESt4pairIKS6_MN11MyFtpServer15Command_HandlerEFvRKNS9_9cmd_info_EEESaISG_ENS_10_Select1stESt8equal_toIS6_ESt4hashIS6_ENS_18_Mod_range_hashingENS_20_Default_ranged_hashENS_20_Prime_rehash_policyENS_17_Hashtable_traitsILb1ELb0ELb1EEEE6insertERKSG_
FN:1130,_ZNSt8__detail21_Hashtable_ebo_helperILi1ESt4hashINSt7__cxx1112basic_stringIcSt11char_traitsIcESaIcEEEELb1EEC2IRKS8_EEOT_
FNDA:2,_ZNSt8__detail21_Hashtable_ebo_helperILi1ESt4hashINSt7__cxx1112basic_stringIcSt11char_traitsIcESaIcEEEELb1EEC2IRKS8_EEOT_
FN:1130,_ZNSt8__detail21_Hashtable_ebo_helperILi0ESaINS_10_Hash_nodeISt4pairIKNSt7__cxx1112basic_stringIcSt11char_traitsIcESaIcEEEMN11MyFtpServer15Command_HandlerEFvRKNSA_9cmd_info_EEELb1EEEELb1EEC2ISJ_EEOT_
FNDA:2,_ZNSt8__detail21_Hashtable_ebo_helperILi0ESaINS_10_Hash_nodeISt4pairIKNSt7__cxx1112basic_stringIcSt11char_traitsIcESaIcEEEMN11MyFtpServer15Command_HandlerEFvRKNSA_9cmd_info_EEELb1EEEELb1EEC2ISJ_EEOT_
FN:1130,_ZNSt8__detail21_Hashtable_ebo_helperILi0ESt8equal_toINSt7__cxx1112basic_stringIcSt11char_traitsIcESaIcEEEELb1EEC2IRKS8_EEOT_
FNDA:2,_ZNSt8__detail21_Hashtable_ebo_helperILi0ESt8equal_toINSt7__cxx1112basic_stringIcSt11char_traitsIcESaIcEEEELb1EEC2IRKS8_EEOT_
FN:1134,_ZNKSt8__detail21_Hashtable_ebo_helperILi1ESt4hashINSt7__cxx1112basic_stringIcSt11char_traitsIcESaIcEEEELb1EE7_M_cgetEv
FNDA:284,_ZNKSt8__detail21_Hashtable_ebo_helperILi1ESt4hashINSt7__cxx1112basic_stringIcSt11char_traitsIcESaIcEEEELb1EE7_M_cgetEv
FN:1134,_ZNKSt8__detail21_Hashtable_ebo_helperILi0ESt8equal_toINSt7__cxx1112basic_stringIcSt11char_traitsIcESaIcEEEELb1EE7_M_cgetEv
FNDA:224,_ZNKSt8__detail21_Hashtable_ebo_helperILi0ESt8equal_toINSt7__cxx1112basic_stringIcSt11char_traitsIcESaIcEEEELb1EE7_M_cgetEv
FN:1135,_ZNSt8__detail21_Hashtable_ebo_helperILi0ESaINS_10_Hash_nodeISt4pairIKNSt7__cxx1112basic_stringIcSt11char_traitsIcESaIcEEEMN11MyFtpServer15Command_HandlerEFvRKNSA_9cmd_info_EEELb1EEEELb1EE6_M_getEv
FNDA:160,_ZNSt8__detail21_Hashtable_ebo_helperILi0ESaINS_10_Hash_nodeISt4pairIKNSt7__cxx1112basic_stringIcSt11char_traitsIcESaIcEEEMN11MyFtpServer15Command_HandlerEFvRKNSA_9cmd_info_EEELb1EEEELb1EE6_M_getEv
FN:1212,_ZNSt8__detail15_Hash_code_baseINSt7__cxx1112basic_stringIcSt11char_traitsIcESaIcEEESt4pairIKS6_MN11MyFtpServer15Command_HandlerEFvRKNS9_9cmd_info_EEENS_10_Select1stESt4hashIS6_ENS_18_Mod_range_hashingENS_20_Default_ranged_hashELb1EEC2ERKSJ_
FNDA:2,_ZNSt8__detail15_Hash_code_baseINSt7__cxx1112basic_stringIcSt11char_traitsIcESaIcEEESt4pairIKS6_MN11MyFtpServer15Command_HandlerEFvRKNS9_9cmd_info_EEENS_10_Select1stESt4hashIS6_ENS_18_Mod_range_hashingENS_20_Default_ranged_hashELb1EEC2ERKSJ_
FN:1215,_ZNKSt8__detail15_Hash_code_baseINSt7__cxx1112basic_stringIcSt11char_traitsIcESaIcEEESt4pairIKS6_MN11MyFtpServer15Command_HandlerEFvRKNS9_9cmd_info_EEENS_10_Select1stESt4hashIS6_ENS_18_Mod_range_hashingENS_20_Default_ranged_hashELb1EE12_M_hash_codeERS8_
FNDA:42,_ZNKSt8__detail15_Hash_code_baseINSt7__cxx1112basic_stringIcSt11char_traitsIcESaIcEEESt4pairIKS6_MN11MyFtpServer15Command_HandlerEFvRKNS9_9cmd_info_EEENS_10_Select1stESt4hashIS6_ENS_18_Mod_range_hashingENS_20_Default_ranged_hashELb1EE12_M_hash_codeERS8_
FN:1232,_ZNKSt8__detail15_Hash_code_baseINSt7__cxx1112basic_stringIcSt11char_traitsIcESaIcEEESt4pairIKS6_MN11MyFtpServer15Command_HandlerEFvRKNS9_9cmd_info_EEENS_10_Select1stESt4hashIS6_ENS_18_Mod_range_hashingENS_20_Default_ranged_hashELb1EE15_M_bucket_indexEmm
FNDA:46,_ZNKSt8__detail15_Hash_code_baseINSt7__cxx1112basic_stringIcSt11char_traitsIcESaIcEEESt4pairIKS6_MN11MyFtpServer15Command_HandlerEFvRKNS9_9cmd_info_EEENS_10_Select1stESt4hashIS6_ENS_18_Mod_range_hashingENS_20_Default_ranged_hashELb1EE15_M_bucket_indexEmm
FN:1247,_ZNKSt8__detail15_Hash_code_baseINSt7__cxx1112basic_stringIcSt11char_traitsIcESaIcEEESt4pairIKS6_MN11MyFtpServer15Command_HandlerEFvRKNS9_9cmd_info_EEENS_10_Select1stESt4hashIS6_ENS_18_Mod_range_hashingENS_20_Default_ranged_hashELb1EE15_M_bucket_indexERKNS_16_Hash_node_valueISG_Lb1EEEm
FNDA:68,_ZNKSt8__detail15_Hash_code_baseINSt7__cxx1112basic_stringIcSt11char_traitsIcESaIcEEESt4pairIKS6_MN11MyFtpServer15Command_HandlerEFvRKNS9_9cmd_info_EEENS_10_Select1stESt4hashIS6_ENS_18_Mod_range_hashingENS_20_Default_ranged_hashELb1EE15_M_bucket_indexERKNS_16_Hash_node_valueISG_Lb1EEEm
FN:1263,_ZNKSt8__detail15_Hash_code_baseINSt7__cxx1112basic_stringIcSt11char_traitsIcESaIcEEESt4pairIKS6_MN11MyFtpServer15Command_HandlerEFvRKNS9_9cmd_info_EEENS_10_Select1stESt4hashIS6_ENS_18_Mod_range_hashingENS_20_Default_ranged_hashELb1EE13_M_store_codeERNS_21_Hash_node_code_cacheILb1EEEm
FNDA:38,_ZNKSt8__detail15_Hash_code_baseINSt7__cxx1112basic_stringIcSt11char_traitsIcESaIcEEESt4pairIKS6_MN11MyFtpServer15Command_HandlerEFvRKNS9_9cmd_info_EEENS_10_Select1stESt4hashIS6_ENS_18_Mod_range_hashingENS_20_Default_ranged_hashELb1EE13_M_store_codeERNS_21_Hash_node_code_cacheILb1EEEm
FN:1276,_ZNKSt8__detail15_Hash_code_baseINSt7__cxx1112basic_stringIcSt11char_traitsIcESaIcEEESt4pairIKS6_MN11MyFtpServer15Command_HandlerEFvRKNS9_9cmd_info_EEENS_10_Select1stESt4hashIS6_ENS_18_Mod_range_hashingENS_20_Default_ranged_hashELb1EE7_M_hashEv
FNDA:42,_ZNKSt8__detail15_Hash_code_baseINSt7__cxx1112basic_stringIcSt11char_traitsIcESaIcEEESt4pairIKS6_MN11MyFtpServer15Command_HandlerEFvRKNS9_9cmd_info_EEENS_10_Select1stESt4hashIS6_ENS_18_Mod_range_hashingENS_20_Default_ranged_hashELb1EE7_M_hashEv
FN:1595,_ZNSt8__detail15_Hashtable_baseINSt7__cxx1112basic_stringIcSt11char_traitsIcESaIcEEESt4pairIKS6_MN11MyFtpServer15Command_HandlerEFvRKNS9_9cmd_info_EEENS_10_Select1stESt8equal_toIS6_ESt4hashIS6_ENS_18_Mod_range_hashingENS_20_Default_ranged_hashENS_17_Hashtable_traitsILb1ELb0ELb1EEEE9_S_equalsEmRKNS_21_Hash_node_code_cacheILb1EEE
FNDA:28,_ZNSt8__detail15_Hashtable_baseINSt7__cxx1112basic_stringIcSt11char_traitsIcESaIcEEESt4pairIKS6_MN11MyFtpServer15Command_HandlerEFvRKNS9_9cmd_info_EEENS_10_Select1stESt8equal_toIS6_ESt4hashIS6_ENS_18_Mod_range_hashingENS_20_Default_ranged_hashENS_17_Hashtable_traitsILb1ELb0ELb1EEEE9_S_equalsEmRKNS_21_Hash_node_code_cacheILb1EEE
FN:1606,_ZNSt8__detail15_Hashtable_baseINSt7__cxx1112basic_stringIcSt11char_traitsIcESaIcEEESt4pairIKS6_MN11MyFtpServer15Command_HandlerEFvRKNS9_9cmd_info_EEENS_10_Select1stESt8equal_toIS6_ESt4hashIS6_ENS_18_Mod_range_hashingENS_20_Default_ranged_hashENS_17_Hashtable_traitsILb1ELb0ELb1EEEEC2ERKSL_RKSJ_
FNDA:2,_ZNSt8__detail15_Hashtable_baseINSt7__cxx1112basic_stringIcSt11char_traitsIcESaIcEEESt4pairIKS6_MN11MyFtpServer15Command_HandlerEFvRKNS9_9cmd_info_EEENS_10_Select1stESt8equal_toIS6_ESt4hashIS6_ENS_18_Mod_range_hashingENS_20_Default_ranged_hashENS_17_Hashtable_traitsILb1ELb0ELb1EEEEC2ERKSL_RKSJ_
FN:1611,_ZNKSt8__detail15_Hashtable_baseINSt7__cxx1112basic_stringIcSt11char_traitsIcESaIcEEESt4pairIKS6_MN11MyFtpServer15Command_HandlerEFvRKNS9_9cmd_info_EEENS_10_Select1stESt8equal_toIS6_ESt4hashIS6_ENS_18_Mod_range_hashingENS_20_Default_ranged_hashENS_17_Hashtable_traitsILb1ELb0ELb1EEEE9_M_equalsERS8_mRKNS_16_Hash_node_valueISG_Lb1EEE
FNDA:28,_ZNKSt8__detail15_Hashtable_baseINSt7__cxx1112basic_stringIcSt11char_traitsIcESaIcEEESt4pairIKS6_MN11MyFtpServer15Command_HandlerEFvRKNS9_9cmd_info_EEENS_10_Select1stESt8equal_toIS6_ESt4hashIS6_ENS_18_Mod_range_hashingENS_20_Default_ranged_hashENS_17_Hashtable_traitsILb1ELb0ELb1EEEE9_M_equalsERS8_mRKNS_16_Hash_node_valueISG_Lb1EEE
FN:1650,_ZNKSt8__detail15_Hashtable_baseINSt7__cxx1112basic_stringIcSt11char_traitsIcESaIcEEESt4pairIKS6_MN11MyFtpServer15Command_HandlerEFvRKNS9_9cmd_info_EEENS_10_Select1stESt8equal_toIS6_ESt4hashIS6_ENS_18_Mod_range_hashingENS_20_Default_ranged_hashENS_17_Hashtable_traitsILb1ELb0ELb1EEEE5_M_eqEv
FNDA:2,_ZNKSt8__detail15_Hashtable_baseINSt7__cxx1112basic_stringIcSt11char_traitsIcESaIcEEESt4pairIKS6_MN11MyFtpServer15Command_HandlerEFvRKNS9_9cmd_info_EEENS_10_Select1stESt8equal_toIS6_ESt4hashIS6_ENS_18_Mod_range_hashingENS_20_Default_ranged_hashENS_17_Hashtable_traitsILb1ELb0ELb1EEEE5_M_eqEv
FN:1828,_ZNSt8__detail16_Hashtable_allocISaINS_10_Hash_nodeISt4pairIKNSt7__cxx1112basic_stringIcSt11char_traitsIcESaIcEEEMN11MyFtpServer15Command_HandlerEFvRKNSA_9cmd_info_EEELb1EEEEEC2ISJ_EEOT_
FNDA:2,_ZNSt8__detail16_Hashtable_allocISaINS_10_Hash_nodeISt4pairIKNSt7__cxx1112basic_stringIcSt11char_traitsIcESaIcEEEMN11MyFtpServer15Command_HandlerEFvRKNSA_9cmd_info_EEELb1EEEEEC2ISJ_EEOT_
FN:1833,_ZNSt8__detail16_Hashtable_allocISaINS_10_Hash_nodeISt4pairIKNSt7__cxx1112basic_stringIcSt11char_traitsIcESaIcEEEMN11MyFtpServer15Command_HandlerEFvRKNSA_9cmd_info_EEELb1EEEEE17_M_node_allocatorEv
FNDA:160,_ZNSt8__detail16_Hashtable_allocISaINS_10_Hash_nodeISt4pairIKNSt7__cxx1112basic_stringIcSt11char_traitsIcESaIcEEEMN11MyFtpServer15Command_HandlerEFvRKNSA_9cmd_info_EEELb1EEEEE17_M_node_allocatorEv
FN:1870,_ZNSt8__detail16_Hashtable_allocISaINS_10_Hash_nodeISt4pairIKNSt7__cxx1112basic_stringIcSt11char_traitsIcESaIcEEEMN11MyFtpServer15Command_HandlerEFvRKNSA_9cmd_info_EEELb1EEEEE16_M_allocate_nodeIJRKSH_EEEPSI_DpOT_
FNDA:38,_ZNSt8__detail16_Hashtable_allocISaINS_10_Hash_nodeISt4pairIKNSt7__cxx1112basic_stringIcSt11char_traitsIcESaIcEEEMN11MyFtpServer15Command_HandlerEFvRKNSA_9cmd_info_EEELb1EEEEE16_M_allocate_nodeIJRKSH_EEEPSI_DpOT_
FN:1892,_ZNSt8__detail16_Hashtable_allocISaINS_10_Hash_nodeISt4pairIKNSt7__cxx1112basic_stringIcSt11char_traitsIcESaIcEEEMN11MyFtpServer15Command_HandlerEFvRKNSA_9cmd_info_EEELb1EEEEE18_M_deallocate_nodeEPSI_
FNDA:38,_ZNSt8__detail16_Hashtable_allocISaINS_10_Hash_nodeISt4pairIKNSt7__cxx1112basic_stringIcSt11char_traitsIcESaIcEEEMN11MyFtpServer15Command_HandlerEFvRKNSA_9cmd_info_EEELb1EEEEE18_M_deallocate_nodeEPSI_
FN:1900,_ZNSt8__detail16_Hashtable_allocISaINS_10_Hash_nodeISt4pairIKNSt7__cxx1112basic_stringIcSt11char_traitsIcESaIcEEEMN11MyFtpServer15Command_HandlerEFvRKNSA_9cmd_info_EEELb1EEEEE22_M_deallocate_node_ptrEPSI_
FNDA:38,_ZNSt8__detail16_Hashtable_allocISaINS_10_Hash_nodeISt4pairIKNSt7__cxx1112basic_stringIcSt11char_traitsIcESaIcEEEMN11MyFtpServer15Command_HandlerEFvRKNSA_9cmd_info_EEELb1EEEEE22_M_deallocate_node_ptrEPSI_
FN:1910,_ZNSt8__detail16_Hashtable_allocISaINS_10_Hash_nodeISt4pairIKNSt7__cxx1112basic_stringIcSt11char_traitsIcESaIcEEEMN11MyFtpServer15Command_HandlerEFvRKNSA_9cmd_info_EEELb1EEEEE19_M_deallocate_nodesEPSI_
FNDA:2,_ZNSt8__detail16_Hashtable_allocISaINS_10_Hash_nodeISt4pairIKNSt7__cxx1112basic_stringIcSt11char_traitsIcESaIcEEEMN11MyFtpServer15Command_HandlerEFvRKNSA_9cmd_info_EEELb1EEEEE19_M_deallocate_nodesEPSI_
FN:1922,_ZNSt8__detail16_Hashtable_allocISaINS_10_Hash_nodeISt4pairIKNSt7__cxx1112basic_stringIcSt11char_traitsIcESaIcEEEMN11MyFtpServer15Command_HandlerEFvRKNSA_9cmd_info_EEELb1EEEEE19_M_allocate_bucketsEm
FNDA:4,_ZNSt8__detail16_Hashtable_allocISaINS_10_Hash_nodeISt4pairIKNSt7__cxx1112basic_stringIcSt11char_traitsIcESaIcEEEMN11MyFtpServer15Command_HandlerEFvRKNSA_9cmd_info_EEELb1EEEEE19_M_allocate_bucketsEm
FN:1935,_ZNSt8__detail16_Hashtable_allocISaINS_10_Hash_nodeISt4pairIKNSt7__cxx1112basic_stringIcSt11char_traitsIcESaIcEEEMN11MyFtpServer15Command_HandlerEFvRKNSA_9cmd_info_EEELb1EEEEE21_M_deallocate_bucketsEPPNS_15_Hash_node_baseEm
FNDA:4,_ZNSt8__detail16_Hashtable_allocISaINS_10_Hash_nodeISt4pairIKNSt7__cxx1112basic_stringIcSt11char_traitsIcESaIcEEEMN11MyFtpServer15Command_HandlerEFvRKNSA_9cmd_info_EEELb1EEEEE21_M_deallocate_bucketsEPPNS_15_Hash_node_baseEm
DA:93,40
DA:95,40
DA:162,38
DA:163,38
DA:167,38
DA:168,38
DA:219,58
DA:237,78
DA:238,78
DA:241,2
DA:242,2
DA:249,2
DA:250,2
DA:282,116
DA:283,116
DA:295,46
DA:296,46
DA:303,4
DA:305,4
DA:338,46
DA:339,46
DA:346,2
DA:347,2
DA:428,366
DA:430,366
DA:446,4
DA:447,4
DA:473,54
DA:474,54
DA:481,0
DA:482,0
DA:815,38
DA:816,38
DA:840,38
DA:842,38
DA:843,38
DA:844,76
DA:1130,2
DA:1131,2
DA:1132,2
DA:1130,2
DA:1131,2
DA:1132,2
DA:1130,2
DA:1131,2
DA:1132,2
DA:1134,224
DA:1134,284
DA:1135,160
DA:1212,2
DA:1215,42
DA:1219,42
DA:1232,46
DA:1233,46
DA:1247,68
DA:1251,68
DA:1263,38
DA:1264,38
DA:1276,42
DA:1595,28
DA:1596,28
DA:1606,2
DA:1607,2
DA:1608,2
DA:1611,28
DA:1617,28
DA:1650,2
DA:1828,2
DA:1829,2
DA:1830,2
DA:1833,160
DA:1834,160
DA:1870,38
DA:1873,38
DA:1874,38
DA:1877,38
DA:1878,38
DA:1881,38
DA:1883,0
DA:1885,0
DA:1886,0
DA:1892,38
DA:1894,38
DA:1895,38
DA:1896,38
DA:1900,38
DA:1903,38
DA:1904,38
DA:1905,38
DA:1906,38
DA:1910,2
DA:1912,40
DA:1914,38
DA:1915,38
DA:1916,38
DA:1918,2
DA:1922,4
DA:1925,4
DA:1927,4
DA:1928,4
DA:1929,4
DA:1930,4
DA:1931,4
DA:1935,4
DA:1940,4
DA:1941,4
DA:1942,4
DA:1943,4
end_of_record
SF:/usr/include/ace/Svc_Handler.cpp
FN:93,_ZN15ACE_Svc_HandlerI15ACE_SOCK_Stream14ACE_NULL_SYNCHE7destroyEv
FNDA:0,_ZN15ACE_Svc_HandlerI15ACE_SOCK_Stream14ACE_NULL_SYNCHE7destroyEv
FN:108,_ZN15ACE_Svc_HandlerI15ACE_SOCK_Stream14ACE_NULL_SYNCHEdlEPv
FNDA:52,_ZN15ACE_Svc_HandlerI15ACE_SOCK_Stream14ACE_NULL_SYNCHEdlEPv
FN:120,_ZN15ACE_Svc_HandlerI15ACE_SOCK_Stream14ACE_NULL_SYNCHEC2EP18ACE_Thread_ManagerP17ACE_Message_QueueIS1_22ACE_System_Time_PolicyEP11ACE_Reactor
FNDA:52,_ZN15ACE_Svc_HandlerI15ACE_SOCK_Stream14ACE_NULL_SYNCHEC2EP18ACE_Thread_ManagerP17ACE_Message_QueueIS1_22ACE_System_Time_PolicyEP11ACE_Reactor
FN:150,_ZN15ACE_Svc_HandlerI15ACE_SOCK_Stream14ACE_NULL_SYNCHE4openEPv
FNDA:0,_ZN15ACE_Svc_HandlerI15ACE_SOCK_Stream14ACE_NULL_SYNCHE4openEPv
FN:186,_ZN15ACE_Svc_HandlerI15ACE_SOCK_Stream14ACE_NULL_SYNCHE8shutdownEv
FNDA:52,_ZN15ACE_Svc_HandlerI15ACE_SOCK_Stream14ACE_NULL_SYNCHE8shutdownEv
FN:212,_ZN15ACE_Svc_HandlerI15ACE_SOCK_Stream14ACE_NULL_SYNCHE12cleanup_hintEPPv
FNDA:0,_ZN15ACE_Svc_HandlerI15ACE_SOCK_Stream14ACE_NULL_SYNCHE12cleanup_hintEPPv
FN:245,_ZNK15ACE_Svc_HandlerI15ACE_SOCK_Stream14ACE_NULL_SYNCHE4peerEv
FNDA:104,_ZNK15ACE_Svc_HandlerI15ACE_SOCK_Stream14ACE_NULL_SYNCHE4peerEv
FN:254,_ZNK15ACE_Svc_HandlerI15ACE_SOCK_Stream14ACE_NULL_SYNCHE10get_handleEv
FNDA:0,_ZNK15ACE_Svc_HandlerI15ACE_SOCK_Stream14ACE_NULL_SYNCHE10get_handleEv
FN:263,_ZN15ACE_Svc_HandlerI15ACE_SOCK_Stream14ACE_NULL_SYNCHE10set_handleEi
FNDA:0,_ZN15ACE_Svc_HandlerI15ACE_SOCK_Stream14ACE_NULL_SYNCHE10set_handleEi
FN:270,_ZN15ACE_Svc_HandlerI15ACE_SOCK_Stream14ACE_NULL_SYNCHED2Ev
FNDA:52,_ZN15ACE_Svc_HandlerI15ACE_SOCK_Stream14ACE_NULL_SYNCHED2Ev
FN:270,_ZN15ACE_Svc_HandlerI15ACE_SOCK_Stream14ACE_NULL_SYNCHED0Ev
FNDA:0,_ZN15ACE_Svc_HandlerI15ACE_SOCK_Stream14ACE_NULL_SYNCHED0Ev
FN:286,_ZN15ACE_Svc_HandlerI15ACE_SOCK_Stream14ACE_NULL_SYNCHE12handle_closeEim
FNDA:0,_ZN15ACE_Svc_HandlerI15ACE_SOCK_Stream14ACE_NULL_SYNCHE12handle_closeEim
FN:301,_ZN15ACE_Svc_HandlerI15ACE_SOCK_Stream14ACE_NULL_SYNCHE14handle_timeoutERK14ACE_Time_ValuePKv
FNDA:0,_ZN15ACE_Svc_HandlerI15ACE_SOCK_Stream14ACE_NULL_SYNCHE14handle_timeoutERK14ACE_Time_ValuePKv
FN:309,_ZN15ACE_Svc_HandlerI15ACE_SOCK_Stream14ACE_NULL_SYNCHE5closeEm
FNDA:0,_ZN15ACE_Svc_HandlerI15ACE_SOCK_Stream14ACE_NULL_SYNCHE5closeEm
FN:316,_ZN15ACE_Svc_HandlerI15ACE_SOCK_Stream14ACE_NULL_SYNCHE4initEiPPc
FNDA:0,_ZN15ACE_Svc_HandlerI15ACE_SOCK_Stream14ACE_NULL_SYNCHE4initEiPPc
FN:324,_ZN15ACE_Svc_HandlerI15ACE_SOCK_Stream14ACE_NULL_SYNCHE4finiEv
FNDA:0,_ZN15ACE_Svc_HandlerI15ACE_SOCK_Stream14ACE_NULL_SYNCHE4finiEv
FN:331,_ZNK15ACE_Svc_HandlerI15ACE_SOCK_Stream14ACE_NULL_SYNCHE4infoEPPcm
FNDA:0,_ZNK15ACE_Svc_HandlerI15ACE_SOCK_Stream14ACE_NULL_SYNCHE4infoEPPcm
FN:338,_ZN15ACE_Svc_HandlerI15ACE_SOCK_Stream14ACE_NULL_SYNCHE4idleEm
FNDA:0,_ZN15ACE_Svc_HandlerI15ACE_SOCK_Stream14ACE_NULL_SYNCHE4idleEm
FN:347,_ZN15ACE_Svc_HandlerI15ACE_SOCK_Stream14ACE_NULL_SYNCHE13recycle_stateE20ACE_Recyclable_State
FNDA:0,_ZN15ACE_Svc_HandlerI15ACE_SOCK_Stream14ACE_NULL_SYNCHE13recycle_stateE20ACE_Recyclable_State
FN:357,_ZNK15ACE_Svc_HandlerI15ACE_SOCK_Stream14ACE_NULL_SYNCHE13recycle_stateEv
FNDA:0,_ZNK15ACE_Svc_HandlerI15ACE_SOCK_Stream14ACE_NULL_SYNCHE13recycle_stateEv
FN:366,_ZN15ACE_Svc_HandlerI15ACE_SOCK_Stream14ACE_NULL_SYNCHE8recyclerEP33ACE_Connection_Recycling_StrategyPKv
FNDA:0,_ZN15ACE_Svc_HandlerI15ACE_SOCK_Stream14ACE_NULL_SYNCHE8recyclerEP33ACE_Connection_Recycling_StrategyPKv
FN:375,_ZNK15ACE_Svc_HandlerI15ACE_SOCK_Stream14ACE_NULL_SYNCHE8recyclerEv
FNDA:52,_ZNK15ACE_Svc_HandlerI15ACE_SOCK_Stream14ACE_NULL_SYNCHE8recyclerEv
FN:382,_ZNK15ACE_Svc_HandlerI15ACE_SOCK_Stream14ACE_NULL_SYNCHE13recycling_actEv
FNDA:0,_ZNK15ACE_Svc_HandlerI15ACE_SOCK_Stream14ACE_NULL_SYNCHE13recycling_actEv
FN:389,_ZN15ACE_Svc_HandlerI15ACE_SOCK_Stream14ACE_NULL_SYNCHE7recycleEPv
FNDA:0,_ZN15ACE_Svc_HandlerI15ACE_SOCK_Stream14ACE_NULL_SYNCHE7recycleEPv
DA:93,0
DA:99,0
DA:104,0
DA:105,0
DA:108,52
DA:114,52
DA:115,52
DA:120,52
DA:124,52
DA:125,52
DA:126,52
DA:130,52
DA:139,52
DA:141,52
DA:143,52
DA:144,52
DA:150,0
DA:172,0
DA:173,0
DA:174,0
DA:176,0
DA:180,0
DA:186,52
DA:191,52
DA:193,52
DA:197,52
DA:199,52
DA:201,0
DA:205,52
DA:206,0
DA:208,52
DA:209,52
DA:212,0
DA:217,0
DA:218,0
DA:220,0
DA:245,104
DA:248,104
DA:254,0
DA:257,0
DA:263,0
DA:266,0
DA:267,0
DA:270,0
DA:283,0
DA:270,52
DA:274,52
DA:279,52
DA:281,52
DA:283,104
DA:286,0
DA:291,0
DA:294,0
DA:297,0
DA:301,0
DA:305,0
DA:309,0
DA:312,0
DA:316,0
DA:320,0
DA:324,0
DA:327,0
DA:331,0
DA:334,0
DA:338,0
DA:340,0
DA:341,0
DA:343,0
DA:347,0
DA:349,0
DA:350,0
DA:351,0
DA:353,0
DA:357,0
DA:359,0
DA:360,0
DA:362,0
DA:366,0
DA:370,0
DA:371,0
DA:372,0
DA:375,52
DA:378,52
DA:382,0
DA:385,0
DA:389,0
DA:393,0
end_of_record
SF:/usr/include/ace/Task_T.inl
FN:91,_ZN8ACE_TaskI12ACE_MT_SYNCH22ACE_System_Time_PolicyE4nextEv
FNDA:0,_ZN8ACE_TaskI12ACE_MT_SYNCH22ACE_System_Time_PolicyE4nextEv
FN:91,_ZN8ACE_TaskI14ACE_NULL_SYNCH22ACE_System_Time_PolicyE4nextEv
FNDA:0,_ZN8ACE_TaskI14ACE_NULL_SYNCH22ACE_System_Time_PolicyE4nextEv
DA:91,0
DA:94,0
DA:91,0
DA:94,0
end_of_record
SF:/usr/include/c++/11/bits/alloc_traits.h
FN:463,_ZNSt16allocator_traitsISaINSt8__detail10_Hash_nodeISt4pairIKNSt7__cxx1112basic_stringIcSt11char_traitsIcESaIcEEEMN11MyFtpServer15Command_HandlerEFvRKNSA_9cmd_info_EEELb1EEEEE8allocateERSJ_m
FNDA:38,_ZNSt16allocator_traitsISaINSt8__detail10_Hash_nodeISt4pairIKNSt7__cxx1112basic_stringIcSt11char_traitsIcESaIcEEEMN11MyFtpServer15Command_HandlerEFvRKNSA_9cmd_info_EEELb1EEEEE8allocateERSJ_m
FN:463,_ZNSt16allocator_traitsISaISt23_Sp_counted_ptr_inplaceIN11MyFtpServer9User_InfoESaIS2_ELN9__gnu_cxx12_Lock_policyE2EEEE8allocateERS7_m
FNDA:52,_ZNSt16allocator_traitsISaISt23_Sp_counted_ptr_inplaceIN11MyFtpServer9User_InfoESaIS2_ELN9__gnu_cxx12_Lock_policyE2EEEE8allocateERS7_m
FN:463,_ZNSt16allocator_traitsISaIPNSt8__detail15_Hash_node_baseEEE8allocateERS3_m
FNDA:6,_ZNSt16allocator_traitsISaIPNSt8__detail15_Hash_node_baseEEE8allocateERS3_m
FN:463,_ZNSt16allocator_traitsISaISt10_List_nodeINSt7__cxx1112basic_stringIcSt11char_traitsIcESaIcEEEEEE8allocateERS8_m
FNDA:220,_ZNSt16allocator_traitsISaISt10_List_nodeINSt7__cxx1112basic_stringIcSt11char_traitsIcESaIcEEEEEE8allocateERS8_m
FN:495,_ZNSt16allocator_traitsISaISt10_List_nodeINSt7__cxx1112basic_stringIcSt11char_traitsIcESaIcEEEEEE10deallocateERS8_PS7_m
FNDA:220,_ZNSt16allocator_traitsISaISt10_List_nodeINSt7__cxx1112basic_stringIcSt11char_traitsIcESaIcEEEEEE10deallocateERS8_PS7_m
FN:495,_ZNSt16allocator_traitsISaISt23_Sp_counted_ptr_inplaceIN11MyFtpServer9User_InfoESaIS2_ELN9__gnu_cxx12_Lock_policyE2EEEE10deallocateERS7_PS6_m
FNDA:52,_ZNSt16allocator_traitsISaISt23_Sp_counted_ptr_inplaceIN11MyFtpServer9User_InfoESaIS2_ELN9__gnu_cxx12_Lock_policyE2EEEE10deallocateERS7_PS6_m
FN:495,_ZNSt16allocator_traitsISaINSt8__detail10_Hash_nodeISt4pairIKNSt7__cxx1112basic_stringIcSt11char_traitsIcESaIcEEEMN11MyFtpServer15Command_HandlerEFvRKNSA_9cmd_info_EEELb1EEEEE10deallocateERSJ_PSI_m
FNDA:38,_ZNSt16allocator_traitsISaINSt8__detail10_Hash_nodeISt4pairIKNSt7__cxx1112basic_stringIcSt11char_traitsIcESaIcEEEMN11MyFtpServer15Command_HandlerEFvRKNSA_9cmd_info_EEELb1EEEEE10deallocateERSJ_PSI_m
FN:495,_ZNSt16allocator_traitsISaIPNSt8__detail15_Hash_node_baseEEE10deallocateERS3_PS2_m
FNDA:6,_ZNSt16allocator_traitsISaIPNSt8__detail15_Hash_node_baseEEE10deallocateERS3_PS2_m
FN:511,_ZNSt16allocator_traitsISaINSt8__detail10_Hash_nodeISt4pairIKNSt7__cxx1112basic_stringIcSt11char_traitsIcESaIcEEEMN11MyFtpServer15Command_HandlerEFvRKNSA_9cmd_info_EEELb1EEEEE9constructISH_JRKSH_EEEvRSJ_PT_DpOT0_
FNDA:38,_ZNSt16allocator_traitsISaINSt8__detail10_Hash_nodeISt4pairIKNSt7__cxx1112basic_stringIcSt11char_traitsIcESaIcEEEMN11MyFtpServer15Command_HandlerEFvRKNSA_9cmd_info_EEELb1EEEEE9constructISH_JRKSH_EEEvRSJ_PT_DpOT0_
FN:511,_ZNSt16allocator_traitsISaISt10_List_nodeINSt7__cxx1112basic_stringIcSt11char_traitsIcESaIcEEEEEE9constructIS6_JRPKcEEEvRS8_PT_DpOT0_
FNDA:208,_ZNSt16allocator_traitsISaISt10_List_nodeINSt7__cxx1112basic_stringIcSt11char_traitsIcESaIcEEEEEE9constructIS6_JRPKcEEEvRS8_PT_DpOT0_
FN:511,_ZNSt16allocator_traitsISaISt10_List_nodeINSt7__cxx1112basic_stringIcSt11char_traitsIcESaIcEEEEEE9constructIS6_JRA82_KcEEEvRS8_PT_DpOT0_
FNDA:2,_ZNSt16allocator_traitsISaISt10_List_nodeINSt7__cxx1112basic_stringIcSt11char_traitsIcESaIcEEEEEE9constructIS6_JRA82_KcEEEvRS8_PT_DpOT0_
FN:511,_ZNSt16allocator_traitsISaISt10_List_nodeINSt7__cxx1112basic_stringIcSt11char_traitsIcESaIcEEEEEE9constructIS6_JRA2048_cEEEvRS8_PT_DpOT0_
FNDA:10,_ZNSt16allocator_traitsISaISt10_List_nodeINSt7__cxx1112basic_stringIcSt11char_traitsIcESaIcEEEEEE9constructIS6_JRA2048_cEEEvRS8_PT_DpOT0_
FN:511,_ZNSt16allocator_traitsISaIN11MyFtpServer9User_InfoEEE9constructIS1_JEEEvRS2_PT_DpOT0_
FNDA:52,_ZNSt16allocator_traitsISaIN11MyFtpServer9User_InfoEEE9constructIS1_JEEEvRS2_PT_DpOT0_
FN:531,_ZNSt16allocator_traitsISaINSt8__detail10_Hash_nodeISt4pairIKNSt7__cxx1112basic_stringIcSt11char_traitsIcESaIcEEEMN11MyFtpServer15Command_HandlerEFvRKNSA_9cmd_info_EEELb1EEEEE7destroyISH_EEvRSJ_PT_
FNDA:38,_ZNSt16allocator_traitsISaINSt8__detail10_Hash_nodeISt4pairIKNSt7__cxx1112basic_stringIcSt11char_traitsIcESaIcEEEMN11MyFtpServer15Command_HandlerEFvRKNSA_9cmd_info_EEELb1EEEEE7destroyISH_EEvRSJ_PT_
FN:531,_ZNSt16allocator_traitsISaIN11MyFtpServer9User_InfoEEE7destroyIS1_EEvRS2_PT_
FNDA:52,_ZNSt16allocator_traitsISaIN11MyFtpServer9User_InfoEEE7destroyIS1_EEvRS2_PT_
FN:531,_ZNSt16allocator_traitsISaISt10_List_nodeINSt7__cxx1112basic_stringIcSt11char_traitsIcESaIcEEEEEE7destroyIS6_EEvRS8_PT_
FNDA:220,_ZNSt16allocator_traitsISaISt10_List_nodeINSt7__cxx1112basic_stringIcSt11char_traitsIcESaIcEEEEEE7destroyIS6_EEvRS8_PT_
FN:562,_ZNSt16allocator_traitsISaIcEE37select_on_container_copy_constructionERKS0_
FNDA:0,_ZNSt16allocator_traitsISaIcEE37select_on_container_copy_constructionERKS0_
DA:463,38
DA:464,38
DA:463,52
DA:464,52
DA:463,6
DA:464,6
DA:463,220
DA:464,220
DA:495,52
DA:496,52
DA:495,38
DA:496,38
DA:495,6
DA:496,6
DA:495,220
DA:496,220
DA:511,38
DA:516,38
DA:520,38
DA:511,52
DA:516,52
DA:520,52
DA:511,10
DA:516,10
DA:520,10
DA:511,2
DA:516,2
DA:520,2
DA:511,208
DA:516,208
DA:520,208
DA:531,52
DA:535,52
DA:539,52
DA:531,38
DA:535,38
DA:539,38
DA:531,220
DA:535,220
DA:539,220
DA:562,0
DA:563,0
end_of_record
SF:/usr/include/ace/Task_T.cpp
FN:47,_ZN8ACE_TaskI14ACE_NULL_SYNCH22ACE_System_Time_PolicyEC2EP18ACE_Thread_ManagerP17ACE_Message_QueueIS0_S1_E
FNDA:52,_ZN8ACE_TaskI14ACE_NULL_SYNCH22ACE_System_Time_PolicyEC2EP18ACE_Thread_ManagerP17ACE_Message_QueueIS0_S1_E
FN:47,_ZN8ACE_TaskI12ACE_MT_SYNCH22ACE_System_Time_PolicyEC2EP18ACE_Thread_ManagerP17ACE_Message_QueueIS0_S1_E
FNDA:0,_ZN8ACE_TaskI12ACE_MT_SYNCH22ACE_System_Time_PolicyEC2EP18ACE_Thread_ManagerP17ACE_Message_QueueIS0_S1_E
FN:69,_ZN8ACE_TaskI14ACE_NULL_SYNCH22ACE_System_Time_PolicyED0Ev
FNDA:0,_ZN8ACE_TaskI14ACE_NULL_SYNCH22ACE_System_Time_PolicyED0Ev
FN:69,_ZN8ACE_TaskI14ACE_NULL_SYNCH22ACE_System_Time_PolicyED2Ev
FNDA:52,_ZN8ACE_TaskI14ACE_NULL_SYNCH22ACE_System_Time_PolicyED2Ev
FN:69,_ZN8ACE_TaskI12ACE_MT_SYNCH22ACE_System_Time_PolicyED0Ev
FNDA:0,_ZN8ACE_TaskI12ACE_MT_SYNCH22ACE_System_Time_PolicyED0Ev
FN:69,_ZN8ACE_TaskI12ACE_MT_SYNCH22ACE_System_Time_PolicyED2Ev
FNDA:0,_ZN8ACE_TaskI12ACE_MT_SYNCH22ACE_System_Time_PolicyED2Ev
DA:47,52
DA:50,52
DA:51,52
DA:52,52
DA:53,52
DA:57,52
DA:60,52
DA:62,52
DA:65,52
DA:66,0
DA:47,0
DA:50,0
DA:51,0
DA:52,0
DA:53,0
DA:57,0
DA:60,0
DA:62,0
DA:65,0
DA:66,0
DA:69,0
DA:78,0
DA:69,52
DA:72,52
DA:73,52
DA:77,52
DA:78,104
DA:69,0
DA:78,0
DA:69,0
DA:72,0
DA:73,0
DA:77,0
DA:78,0
end_of_record
SF:/usr/include/ace/Message_Queue_T.cpp
FN:791,_ZN17ACE_Message_QueueI12ACE_MT_SYNCH22ACE_System_Time_PolicyE7dequeueERP17ACE_Message_BlockP14ACE_Time_Value
FNDA:0,_ZN17ACE_Message_QueueI12ACE_MT_SYNCH22ACE_System_Time_PolicyE7dequeueERP17ACE_Message_BlockP14ACE_Time_Value
FN:791,_ZN17ACE_Message_QueueI14ACE_NULL_SYNCH22ACE_System_Time_PolicyE7dequeueERP17ACE_Message_BlockP14ACE_Time_Value
FNDA:0,_ZN17ACE_Message_QueueI14ACE_NULL_SYNCH22ACE_System_Time_PolicyE7dequeueERP17ACE_Message_BlockP14ACE_Time_Value
FN:799,_ZN17ACE_Message_QueueI12ACE_MT_SYNCH22ACE_System_Time_PolicyE21notification_strategyEv
FNDA:0,_ZN17ACE_Message_QueueI12ACE_MT_SYNCH22ACE_System_Time_PolicyE21notification_strategyEv
FN:799,_ZN17ACE_Message_QueueI14ACE_NULL_SYNCH22ACE_System_Time_PolicyE21notification_strategyEv
FNDA:0,_ZN17ACE_Message_QueueI14ACE_NULL_SYNCH22ACE_System_Time_PolicyE21notification_strategyEv
FN:807,_ZN17ACE_Message_QueueI12ACE_MT_SYNCH22ACE_System_Time_PolicyE21notification_strategyEP25ACE_Notification_Strategy
FNDA:0,_ZN17ACE_Message_QueueI12ACE_MT_SYNCH22ACE_System_Time_PolicyE21notification_strategyEP25ACE_Notification_Strategy
FN:807,_ZN17ACE_Message_QueueI14ACE_NULL_SYNCH22ACE_System_Time_PolicyE21notification_strategyEP25ACE_Notification_Strategy
FNDA:0,_ZN17ACE_Message_QueueI14ACE_NULL_SYNCH22ACE_System_Time_PolicyE21notification_strategyEP25ACE_Notification_Strategy
FN:817,_ZN17ACE_Message_QueueI14ACE_NULL_SYNCH22ACE_System_Time_PolicyE10is_empty_iEv
FNDA:0,_ZN17ACE_Message_QueueI14ACE_NULL_SYNCH22ACE_System_Time_PolicyE10is_empty_iEv
FN:817,_ZN17ACE_Message_QueueI12ACE_MT_SYNCH22ACE_System_Time_PolicyE10is_empty_iEv
FNDA:0,_ZN17ACE_Message_QueueI12ACE_MT_SYNCH22ACE_System_Time_PolicyE10is_empty_iEv
FN:826,_ZN17ACE_Message_QueueI14ACE_NULL_SYNCH22ACE_System_Time_PolicyE9is_full_iEv
FNDA:0,_ZN17ACE_Message_QueueI14ACE_NULL_SYNCH22ACE_System_Time_PolicyE9is_full_iEv
FN:826,_ZN17ACE_Message_QueueI12ACE_MT_SYNCH22ACE_System_Time_PolicyE9is_full_iEv
FNDA:0,_ZN17ACE_Message_QueueI12ACE_MT_SYNCH22ACE_System_Time_PolicyE9is_full_iEv
FN:835,_ZN17ACE_Message_QueueI12ACE_MT_SYNCH22ACE_System_Time_PolicyE8is_emptyEv
FNDA:0,_ZN17ACE_Message_QueueI12ACE_MT_SYNCH22ACE_System_Time_PolicyE8is_emptyEv
FN:835,_ZN17ACE_Message_QueueI14ACE_NULL_SYNCH22ACE_System_Time_PolicyE8is_emptyEv
FNDA:0,_ZN17ACE_Message_QueueI14ACE_NULL_SYNCH22ACE_System_Time_PolicyE8is_emptyEv
FN:846,_ZN17ACE_Message_QueueI12ACE_MT_SYNCH22ACE_System_Time_PolicyE7is_fullEv
FNDA:0,_ZN17ACE_Message_QueueI12ACE_MT_SYNCH22ACE_System_Time_PolicyE7is_fullEv
FN:846,_ZN17ACE_Message_QueueI14ACE_NULL_SYNCH22ACE_System_Time_PolicyE7is_fullEv
FNDA:0,_ZN17ACE_Message_QueueI14ACE_NULL_SYNCH22ACE_System_Time_PolicyE7is_fullEv
FN:855,_ZN17ACE_Message_QueueI14ACE_NULL_SYNCH22ACE_System_Time_PolicyE15high_water_markEv
FNDA:0,_ZN17ACE_Message_QueueI14ACE_NULL_SYNCH22ACE_System_Time_PolicyE15high_water_markEv
FN:855,_ZN17ACE_Message_QueueI12ACE_MT_SYNCH22ACE_System_Time_PolicyE15high_water_markEv
FNDA:0,_ZN17ACE_Message_QueueI12ACE_MT_SYNCH22ACE_System_Time_PolicyE15high_water_markEv
FN:864,_ZN17ACE_Message_QueueI14ACE_NULL_SYNCH22ACE_System_Time_PolicyE15high_water_markEm
FNDA:0,_ZN17ACE_Message_QueueI14ACE_NULL_SYNCH22ACE_System_Time_PolicyE15high_water_markEm
FN:864,_ZN17ACE_Message_QueueI12ACE_MT_SYNCH22ACE_System_Time_PolicyE15high_water_markEm
FNDA:0,_ZN17ACE_Message_QueueI12ACE_MT_SYNCH22ACE_System_Time_PolicyE15high_water_markEm
FN:873,_ZN17ACE_Message_QueueI14ACE_NULL_SYNCH22ACE_System_Time_PolicyE14low_water_markEv
FNDA:0,_ZN17ACE_Message_QueueI14ACE_NULL_SYNCH22ACE_System_Time_PolicyE14low_water_markEv
FN:873,_ZN17ACE_Message_QueueI12ACE_MT_SYNCH22ACE_System_Time_PolicyE14low_water_markEv
FNDA:0,_ZN17ACE_Message_QueueI12ACE_MT_SYNCH22ACE_System_Time_PolicyE14low_water_markEv
FN:882,_ZN17ACE_Message_QueueI14ACE_NULL_SYNCH22ACE_System_Time_PolicyE14low_water_markEm
FNDA:0,_ZN17ACE_Message_QueueI14ACE_NULL_SYNCH22ACE_System_Time_PolicyE14low_water_markEm
FN:882,_ZN17ACE_Message_QueueI12ACE_MT_SYNCH22ACE_System_Time_PolicyE14low_water_markEm
FNDA:0,_ZN17ACE_Message_QueueI12ACE_MT_SYNCH22ACE_System_Time_PolicyE14low_water_markEm
FN:891,_ZN17ACE_Message_QueueI12ACE_MT_SYNCH22ACE_System_Time_PolicyE13message_bytesEv
FNDA:0,_ZN17ACE_Message_QueueI12ACE_MT_SYNCH22ACE_System_Time_PolicyE13message_bytesEv
FN:891,_ZN17ACE_Message_QueueI14ACE_NULL_SYNCH22ACE_System_Time_PolicyE13message_bytesEv
FNDA:0,_ZN17ACE_Message_QueueI14ACE_NULL_SYNCH22ACE_System_Time_PolicyE13message_bytesEv
FN:900,_ZN17ACE_Message_QueueI14ACE_NULL_SYNCH22ACE_System_Time_PolicyE14message_lengthEv
FNDA:0,_ZN17ACE_Message_QueueI14ACE_NULL_SYNCH22ACE_System_Time_PolicyE14message_lengthEv
FN:900,_ZN17ACE_Message_QueueI12ACE_MT_SYNCH22ACE_System_Time_PolicyE14message_lengthEv
FNDA:0,_ZN17ACE_Message_QueueI12ACE_MT_SYNCH22ACE_System_Time_PolicyE14message_lengthEv
FN:909,_ZN17ACE_Message_QueueI12ACE_MT_SYNCH22ACE_System_Time_PolicyE13message_countEv
FNDA:0,_ZN17ACE_Message_QueueI12ACE_MT_SYNCH22ACE_System_Time_PolicyE13message_countEv
FN:909,_ZN17ACE_Message_QueueI14ACE_NULL_SYNCH22ACE_System_Time_PolicyE13message_countEv
FNDA:0,_ZN17ACE_Message_QueueI14ACE_NULL_SYNCH22ACE_System_Time_PolicyE13message_countEv
FN:918,_ZN17ACE_Message_QueueI12ACE_MT_SYNCH22ACE_System_Time_PolicyE10deactivateEv
FNDA:0,_ZN17ACE_Message_QueueI12ACE_MT_SYNCH22ACE_System_Time_PolicyE10deactivateEv
FN:918,_ZN17ACE_Message_QueueI14ACE_NULL_SYNCH22ACE_System_Time_PolicyE10deactivateEv
FNDA:0,_ZN17ACE_Message_QueueI14ACE_NULL_SYNCH22ACE_System_Time_PolicyE10deactivateEv
FN:927,_ZN17ACE_Message_QueueI14ACE_NULL_SYNCH22ACE_System_Time_PolicyE8activateEv
FNDA:0,_ZN17ACE_Message_QueueI14ACE_NULL_SYNCH22ACE_System_Time_PolicyE8activateEv
FN:927,_ZN17ACE_Message_QueueI12ACE_MT_SYNCH22ACE_System_Time_PolicyE8activateEv
FNDA:0,_ZN17ACE_Message_QueueI12ACE_MT_SYNCH22ACE_System_Time_PolicyE8activateEv
FN:936,_ZN17ACE_Message_QueueI14ACE_NULL_SYNCH22ACE_System_Time_PolicyE5pulseEv
FNDA:0,_ZN17ACE_Message_QueueI14ACE_NULL_SYNCH22ACE_System_Time_PolicyE5pulseEv
FN:936,_ZN17ACE_Message_QueueI12ACE_MT_SYNCH22ACE_System_Time_PolicyE5pulseEv
FNDA:0,_ZN17ACE_Message_QueueI12ACE_MT_SYNCH22ACE_System_Time_PolicyE5pulseEv
FN:945,_ZN17ACE_Message_QueueI14ACE_NULL_SYNCH22ACE_System_Time_PolicyE11deactivatedEv
FNDA:0,_ZN17ACE_Message_QueueI14ACE_NULL_SYNCH22ACE_System_Time_PolicyE11deactivatedEv
FN:945,_ZN17ACE_Message_QueueI12ACE_MT_SYNCH22ACE_System_Time_PolicyE11deactivatedEv
FNDA:0,_ZN17ACE_Message_QueueI12ACE_MT_SYNCH22ACE_System_Time_PolicyE11deactivatedEv
FN:953,_ZN17ACE_Message_QueueI14ACE_NULL_SYNCH22ACE_System_Time_PolicyE5stateEv
FNDA:0,_ZN17ACE_Message_QueueI14ACE_NULL_SYNCH22ACE_System_Time_PolicyE5stateEv
FN:953,_ZN17ACE_Message_QueueI12ACE_MT_SYNCH22ACE_System_Time_PolicyE5stateEv
FNDA:0,_ZN17ACE_Message_QueueI12ACE_MT_SYNCH22ACE_System_Time_PolicyE5stateEv
FN:961,_ZN17ACE_Message_QueueI14ACE_NULL_SYNCH22ACE_System_Time_PolicyE4lockEv
FNDA:0,_ZN17ACE_Message_QueueI14ACE_NULL_SYNCH22ACE_System_Time_PolicyE4lockEv
FN:961,_ZN17ACE_Message_QueueI12ACE_MT_SYNCH22ACE_System_Time_PolicyE4lockEv
FNDA:0,_ZN17ACE_Message_QueueI12ACE_MT_SYNCH22ACE_System_Time_PolicyE4lockEv
FN:981,_ZNK17ACE_Message_QueueI12ACE_MT_SYNCH22ACE_System_Time_PolicyE4dumpEv
FNDA:0,_ZNK17ACE_Message_QueueI12ACE_MT_SYNCH22ACE_System_Time_PolicyE4dumpEv
FN:981,_ZNK17ACE_Message_QueueI14ACE_NULL_SYNCH22ACE_System_Time_PolicyE4dumpEv
FNDA:0,_ZNK17ACE_Message_QueueI14ACE_NULL_SYNCH22ACE_System_Time_PolicyE4dumpEv
FN:1025,_ZN17ACE_Message_QueueI12ACE_MT_SYNCH22ACE_System_Time_PolicyE13message_bytesEm
FNDA:0,_ZN17ACE_Message_QueueI12ACE_MT_SYNCH22ACE_System_Time_PolicyE13message_bytesEm
FN:1025,_ZN17ACE_Message_QueueI14ACE_NULL_SYNCH22ACE_System_Time_PolicyE13message_bytesEm
FNDA:0,_ZN17ACE_Message_QueueI14ACE_NULL_SYNCH22ACE_System_Time_PolicyE13message_bytesEm
FN:1034,_ZN17ACE_Message_QueueI12ACE_MT_SYNCH22ACE_System_Time_PolicyE14message_lengthEm
FNDA:0,_ZN17ACE_Message_QueueI12ACE_MT_SYNCH22ACE_System_Time_PolicyE14message_lengthEm
FN:1034,_ZN17ACE_Message_QueueI14ACE_NULL_SYNCH22ACE_System_Time_PolicyE14message_lengthEm
FNDA:0,_ZN17ACE_Message_QueueI14ACE_NULL_SYNCH22ACE_System_Time_PolicyE14message_lengthEm
FN:1043,_ZN17ACE_Message_QueueI12ACE_MT_SYNCH22ACE_System_Time_PolicyEC2EmmP25ACE_Notification_Strategy
FNDA:0,_ZN17ACE_Message_QueueI12ACE_MT_SYNCH22ACE_System_Time_PolicyEC2EmmP25ACE_Notification_Strategy
FN:1043,_ZN17ACE_Message_QueueI14ACE_NULL_SYNCH22ACE_System_Time_PolicyEC2EmmP25ACE_Notification_Strategy
FNDA:52,_ZN17ACE_Message_QueueI14ACE_NULL_SYNCH22ACE_System_Time_PolicyEC2EmmP25ACE_Notification_Strategy
FN:1084,_ZN17ACE_Message_QueueI14ACE_NULL_SYNCH22ACE_System_Time_PolicyED0Ev
FNDA:52,_ZN17ACE_Message_QueueI14ACE_NULL_SYNCH22ACE_System_Time_PolicyED0Ev
FN:1084,_ZN17ACE_Message_QueueI14ACE_NULL_SYNCH22ACE_System_Time_PolicyED2Ev
FNDA:52,_ZN17ACE_Message_QueueI14ACE_NULL_SYNCH22ACE_System_Time_PolicyED2Ev
FN:1084,_ZN17ACE_Message_QueueI12ACE_MT_SYNCH22ACE_System_Time_PolicyED0Ev
FNDA:0,_ZN17ACE_Message_QueueI12ACE_MT_SYNCH22ACE_System_Time_PolicyED0Ev
FN:1084,_ZN17ACE_Message_QueueI12ACE_MT_SYNCH22ACE_System_Time_PolicyED2Ev
FNDA:0,_ZN17ACE_Message_QueueI12ACE_MT_SYNCH22ACE_System_Time_PolicyED2Ev
FN:1098,_ZN17ACE_Message_QueueI12ACE_MT_SYNCH22ACE_System_Time_PolicyE7flush_iEv
FNDA:0,_ZN17ACE_Message_QueueI12ACE_MT_SYNCH22ACE_System_Time_PolicyE7flush_iEv
FN:1098,_ZN17ACE_Message_QueueI14ACE_NULL_SYNCH22ACE_System_Time_PolicyE7flush_iEv
FNDA:0,_ZN17ACE_Message_QueueI14ACE_NULL_SYNCH22ACE_System_Time_PolicyE7flush_iEv
FN:1141,_ZN17ACE_Message_QueueI14ACE_NULL_SYNCH22ACE_System_Time_PolicyE4openEmmP25ACE_Notification_Strategy
FNDA:52,_ZN17ACE_Message_QueueI14ACE_NULL_SYNCH22ACE_System_Time_PolicyE4openEmmP25ACE_Notification_Strategy
FN:1141,_ZN17ACE_Message_QueueI12ACE_MT_SYNCH22ACE_System_Time_PolicyE4openEmmP25ACE_Notification_Strategy
FNDA:0,_ZN17ACE_Message_QueueI12ACE_MT_SYNCH22ACE_System_Time_PolicyE4openEmmP25ACE_Notification_Strategy
FN:1162,_ZN17ACE_Message_QueueI12ACE_MT_SYNCH22ACE_System_Time_PolicyE12deactivate_iEi
FNDA:0,_ZN17ACE_Message_QueueI12ACE_MT_SYNCH22ACE_System_Time_PolicyE12deactivate_iEi
FN:1162,_ZN17ACE_Message_QueueI14ACE_NULL_SYNCH22ACE_System_Time_PolicyE12deactivate_iEi
FNDA:0,_ZN17ACE_Message_QueueI14ACE_NULL_SYNCH22ACE_System_Time_PolicyE12deactivate_iEi
FN:1183,_ZN17ACE_Message_QueueI14ACE_NULL_SYNCH22ACE_System_Time_PolicyE10activate_iEv
FNDA:0,_ZN17ACE_Message_QueueI14ACE_NULL_SYNCH22ACE_System_Time_PolicyE10activate_iEv
FN:1183,_ZN17ACE_Message_QueueI12ACE_MT_SYNCH22ACE_System_Time_PolicyE10activate_iEv
FNDA:0,_ZN17ACE_Message_QueueI12ACE_MT_SYNCH22ACE_System_Time_PolicyE10activate_iEv
FN:1192,_ZN17ACE_Message_QueueI12ACE_MT_SYNCH22ACE_System_Time_PolicyE5flushEv
FNDA:0,_ZN17ACE_Message_QueueI12ACE_MT_SYNCH22ACE_System_Time_PolicyE5flushEv
FN:1192,_ZN17ACE_Message_QueueI14ACE_NULL_SYNCH22ACE_System_Time_PolicyE5flushEv
FNDA:0,_ZN17ACE_Message_QueueI14ACE_NULL_SYNCH22ACE_System_Time_PolicyE5flushEv
FN:1204,_ZN17ACE_Message_QueueI12ACE_MT_SYNCH22ACE_System_Time_PolicyE5closeEv
FNDA:0,_ZN17ACE_Message_QueueI12ACE_MT_SYNCH22ACE_System_Time_PolicyE5closeEv
FN:1204,_ZN17ACE_Message_QueueI14ACE_NULL_SYNCH22ACE_System_Time_PolicyE5closeEv
FNDA:0,_ZN17ACE_Message_QueueI14ACE_NULL_SYNCH22ACE_System_Time_PolicyE5closeEv
FN:1218,_ZN17ACE_Message_QueueI12ACE_MT_SYNCH22ACE_System_Time_PolicyE22signal_enqueue_waitersEv
FNDA:0,_ZN17ACE_Message_QueueI12ACE_MT_SYNCH22ACE_System_Time_PolicyE22signal_enqueue_waitersEv
FN:1218,_ZN17ACE_Message_QueueI14ACE_NULL_SYNCH22ACE_System_Time_PolicyE22signal_enqueue_waitersEv
FNDA:0,_ZN17ACE_Message_QueueI14ACE_NULL_SYNCH22ACE_System_Time_PolicyE22signal_enqueue_waitersEv
FN:1226,_ZN17ACE_Message_QueueI12ACE_MT_SYNCH22ACE_System_Time_PolicyE22signal_dequeue_waitersEv
FNDA:0,_ZN17ACE_Message_QueueI12ACE_MT_SYNCH22ACE_System_Time_PolicyE22signal_dequeue_waitersEv
FN:1226,_ZN17ACE_Message_QueueI14ACE_NULL_SYNCH22ACE_System_Time_PolicyE22signal_dequeue_waitersEv
FNDA:0,_ZN17ACE_Message_QueueI14ACE_NULL_SYNCH22ACE_System_Time_PolicyE22signal_dequeue_waitersEv
FN:1238,_ZN17ACE_Message_QueueI14ACE_NULL_SYNCH22ACE_System_Time_PolicyE14enqueue_tail_iEP17ACE_Message_Block
FNDA:0,_ZN17ACE_Message_QueueI14ACE_NULL_SYNCH22ACE_System_Time_PolicyE14enqueue_tail_iEP17ACE_Message_Block
FN:1238,_ZN17ACE_Message_QueueI12ACE_MT_SYNCH22ACE_System_Time_PolicyE14enqueue_tail_iEP17ACE_Message_Block
FNDA:0,_ZN17ACE_Message_QueueI12ACE_MT_SYNCH22ACE_System_Time_PolicyE14enqueue_tail_iEP17ACE_Message_Block
FN:1289,_ZN17ACE_Message_QueueI12ACE_MT_SYNCH22ACE_System_Time_PolicyE14enqueue_head_iEP17ACE_Message_Block
FNDA:0,_ZN17ACE_Message_QueueI12ACE_MT_SYNCH22ACE_System_Time_PolicyE14enqueue_head_iEP17ACE_Message_Block
FN:1289,_ZN17ACE_Message_QueueI14ACE_NULL_SYNCH22ACE_System_Time_PolicyE14enqueue_head_iEP17ACE_Message_Block
FNDA:0,_ZN17ACE_Message_QueueI14ACE_NULL_SYNCH22ACE_System_Time_PolicyE14enqueue_head_iEP17ACE_Message_Block
FN:1334,_ZN17ACE_Message_QueueI14ACE_NULL_SYNCH22ACE_System_Time_PolicyE9enqueue_iEP17ACE_Message_Block
FNDA:0,_ZN17ACE_Message_QueueI14ACE_NULL_SYNCH22ACE_System_Time_PolicyE9enqueue_iEP17ACE_Message_Block
FN:1334,_ZN17ACE_Message_QueueI12ACE_MT_SYNCH22ACE_System_Time_PolicyE9enqueue_iEP17ACE_Message_Block
FNDA:0,_ZN17ACE_Message_QueueI12ACE_MT_SYNCH22ACE_System_Time_PolicyE9enqueue_iEP17ACE_Message_Block
FN:1405,_ZN17ACE_Message_QueueI12ACE_MT_SYNCH22ACE_System_Time_PolicyE18enqueue_deadline_iEP17ACE_Message_Block
FNDA:0,_ZN17ACE_Message_QueueI12ACE_MT_SYNCH22ACE_System_Time_PolicyE18enqueue_deadline_iEP17ACE_Message_Block
FN:1405,_ZN17ACE_Message_QueueI14ACE_NULL_SYNCH22ACE_System_Time_PolicyE18enqueue_deadline_iEP17ACE_Message_Block
FNDA:0,_ZN17ACE_Message_QueueI14ACE_NULL_SYNCH22ACE_System_Time_PolicyE18enqueue_deadline_iEP17ACE_Message_Block
FN:1476,_ZN17ACE_Message_QueueI14ACE_NULL_SYNCH22ACE_System_Time_PolicyE14dequeue_head_iERP17ACE_Message_Block
FNDA:0,_ZN17ACE_Message_QueueI14ACE_NULL_SYNCH22ACE_System_Time_PolicyE14dequeue_head_iERP17ACE_Message_Block
FN:1476,_ZN17ACE_Message_QueueI12ACE_MT_SYNCH22ACE_System_Time_PolicyE14dequeue_head_iERP17ACE_Message_Block
FNDA:0,_ZN17ACE_Message_QueueI12ACE_MT_SYNCH22ACE_System_Time_PolicyE14dequeue_head_iERP17ACE_Message_Block
FN:1527,_ZN17ACE_Message_QueueI14ACE_NULL_SYNCH22ACE_System_Time_PolicyE14dequeue_prio_iERP17ACE_Message_Block
FNDA:0,_ZN17ACE_Message_QueueI14ACE_NULL_SYNCH22ACE_System_Time_PolicyE14dequeue_prio_iERP17ACE_Message_Block
FN:1527,_ZN17ACE_Message_QueueI12ACE_MT_SYNCH22ACE_System_Time_PolicyE14dequeue_prio_iERP17ACE_Message_Block
FNDA:0,_ZN17ACE_Message_QueueI12ACE_MT_SYNCH22ACE_System_Time_PolicyE14dequeue_prio_iERP17ACE_Message_Block
FN:1602,_ZN17ACE_Message_QueueI14ACE_NULL_SYNCH22ACE_System_Time_PolicyE14dequeue_tail_iERP17ACE_Message_Block
FNDA:0,_ZN17ACE_Message_QueueI14ACE_NULL_SYNCH22ACE_System_Time_PolicyE14dequeue_tail_iERP17ACE_Message_Block
FN:1602,_ZN17ACE_Message_QueueI12ACE_MT_SYNCH22ACE_System_Time_PolicyE14dequeue_tail_iERP17ACE_Message_Block
FNDA:0,_ZN17ACE_Message_QueueI12ACE_MT_SYNCH22ACE_System_Time_PolicyE14dequeue_tail_iERP17ACE_Message_Block
FN:1651,_ZN17ACE_Message_QueueI14ACE_NULL_SYNCH22ACE_System_Time_PolicyE18dequeue_deadline_iERP17ACE_Message_Block
FNDA:0,_ZN17ACE_Message_QueueI14ACE_NULL_SYNCH22ACE_System_Time_PolicyE18dequeue_deadline_iERP17ACE_Message_Block
FN:1651,_ZN17ACE_Message_QueueI12ACE_MT_SYNCH22ACE_System_Time_PolicyE18dequeue_deadline_iERP17ACE_Message_Block
FNDA:0,_ZN17ACE_Message_QueueI12ACE_MT_SYNCH22ACE_System_Time_PolicyE18dequeue_deadline_iERP17ACE_Message_Block
FN:1721,_ZN17ACE_Message_QueueI12ACE_MT_SYNCH22ACE_System_Time_PolicyE17peek_dequeue_headERP17ACE_Message_BlockP14ACE_Time_Value
FNDA:0,_ZN17ACE_Message_QueueI12ACE_MT_SYNCH22ACE_System_Time_PolicyE17peek_dequeue_headERP17ACE_Message_BlockP14ACE_Time_Value
FN:1721,_ZN17ACE_Message_QueueI14ACE_NULL_SYNCH22ACE_System_Time_PolicyE17peek_dequeue_headERP17ACE_Message_BlockP14ACE_Time_Value
FNDA:0,_ZN17ACE_Message_QueueI14ACE_NULL_SYNCH22ACE_System_Time_PolicyE17peek_dequeue_headERP17ACE_Message_BlockP14ACE_Time_Value
FN:1742,_ZN17ACE_Message_QueueI12ACE_MT_SYNCH22ACE_System_Time_PolicyE18wait_not_full_condEP14ACE_Time_Value
FNDA:0,_ZN17ACE_Message_QueueI12ACE_MT_SYNCH22ACE_System_Time_PolicyE18wait_not_full_condEP14ACE_Time_Value
FN:1742,_ZN17ACE_Message_QueueI14ACE_NULL_SYNCH22ACE_System_Time_PolicyE18wait_not_full_condEP14ACE_Time_Value
FNDA:0,_ZN17ACE_Message_QueueI14ACE_NULL_SYNCH22ACE_System_Time_PolicyE18wait_not_full_condEP14ACE_Time_Value
FN:1768,_ZN17ACE_Message_QueueI12ACE_MT_SYNCH22ACE_System_Time_PolicyE19wait_not_empty_condEP14ACE_Time_Value
FNDA:0,_ZN17ACE_Message_QueueI12ACE_MT_SYNCH22ACE_System_Time_PolicyE19wait_not_empty_condEP14ACE_Time_Value
FN:1768,_ZN17ACE_Message_QueueI14ACE_NULL_SYNCH22ACE_System_Time_PolicyE19wait_not_empty_condEP14ACE_Time_Value
FNDA:0,_ZN17ACE_Message_QueueI14ACE_NULL_SYNCH22ACE_System_Time_PolicyE19wait_not_empty_condEP14ACE_Time_Value
FN:1797,_ZN17ACE_Message_QueueI12ACE_MT_SYNCH22ACE_System_Time_PolicyE12enqueue_headEP17ACE_Message_BlockP14ACE_Time_Value
FNDA:0,_ZN17ACE_Message_QueueI12ACE_MT_SYNCH22ACE_System_Time_PolicyE12enqueue_headEP17ACE_Message_BlockP14ACE_Time_Value
FN:1797,_ZN17ACE_Message_QueueI14ACE_NULL_SYNCH22ACE_System_Time_PolicyE12enqueue_headEP17ACE_Message_BlockP14ACE_Time_Value
FNDA:0,_ZN17ACE_Message_QueueI14ACE_NULL_SYNCH22ACE_System_Time_PolicyE12enqueue_headEP17ACE_Message_BlockP14ACE_Time_Value
FN:1835,_ZN17ACE_Message_QueueI12ACE_MT_SYNCH22ACE_System_Time_PolicyE12enqueue_prioEP17ACE_Message_BlockP14ACE_Time_Value
FNDA:0,_ZN17ACE_Message_QueueI12ACE_MT_SYNCH22ACE_System_Time_PolicyE12enqueue_prioEP17ACE_Message_BlockP14ACE_Time_Value
FN:1835,_ZN17ACE_Message_QueueI14ACE_NULL_SYNCH22ACE_System_Time_PolicyE12enqueue_prioEP17ACE_Message_BlockP14ACE_Time_Value
FNDA:0,_ZN17ACE_Message_QueueI14ACE_NULL_SYNCH22ACE_System_Time_PolicyE12enqueue_prioEP17ACE_Message_BlockP14ACE_Time_Value
FN:1873,_ZN17ACE_Message_QueueI12ACE_MT_SYNCH22ACE_System_Time_PolicyE16enqueue_deadlineEP17ACE_Message_BlockP14ACE_Time_Value
FNDA:0,_ZN17ACE_Message_QueueI12ACE_MT_SYNCH22ACE_System_Time_PolicyE16enqueue_deadlineEP17ACE_Message_BlockP14ACE_Time_Value
FN:1873,_ZN17ACE_Message_QueueI14ACE_NULL_SYNCH22ACE_System_Time_PolicyE16enqueue_deadlineEP17ACE_Message_BlockP14ACE_Time_Value
FNDA:0,_ZN17ACE_Message_QueueI14ACE_NULL_SYNCH22ACE_System_Time_PolicyE16enqueue_deadlineEP17ACE_Message_BlockP14ACE_Time_Value
FN:1907,_ZN17ACE_Message_QueueI12ACE_MT_SYNCH22ACE_System_Time_PolicyE7enqueueEP17ACE_Message_BlockP14ACE_Time_Value
FNDA:0,_ZN17ACE_Message_QueueI12ACE_MT_SYNCH22ACE_System_Time_PolicyE7enqueueEP17ACE_Message_BlockP14ACE_Time_Value
FN:1907,_ZN17ACE_Message_QueueI14ACE_NULL_SYNCH22ACE_System_Time_PolicyE7enqueueEP17ACE_Message_BlockP14ACE_Time_Value
FNDA:0,_ZN17ACE_Message_QueueI14ACE_NULL_SYNCH22ACE_System_Time_PolicyE7enqueueEP17ACE_Message_BlockP14ACE_Time_Value
FN:1918,_ZN17ACE_Message_QueueI14ACE_NULL_SYNCH22ACE_System_Time_PolicyE12enqueue_tailEP17ACE_Message_BlockP14ACE_Time_Value
FNDA:0,_ZN17ACE_Message_QueueI14ACE_NULL_SYNCH22ACE_System_Time_PolicyE12enqueue_tailEP17ACE_Message_BlockP14ACE_Time_Value
FN:1918,_ZN17ACE_Message_QueueI12ACE_MT_SYNCH22ACE_System_Time_PolicyE12enqueue_tailEP17ACE_Message_BlockP14ACE_Time_Value
FNDA:0,_ZN17ACE_Message_QueueI12ACE_MT_SYNCH22ACE_System_Time_PolicyE12enqueue_tailEP17ACE_Message_BlockP14ACE_Time_Value
FN:1956,_ZN17ACE_Message_QueueI14ACE_NULL_SYNCH22ACE_System_Time_PolicyE12dequeue_headERP17ACE_Message_BlockP14ACE_Time_Value
FNDA:0,_ZN17ACE_Message_QueueI14ACE_NULL_SYNCH22ACE_System_Time_PolicyE12dequeue_headERP17ACE_Message_BlockP14ACE_Time_Value
FN:1956,_ZN17ACE_Message_QueueI12ACE_MT_SYNCH22ACE_System_Time_PolicyE12dequeue_headERP17ACE_Message_BlockP14ACE_Time_Value
FNDA:0,_ZN17ACE_Message_QueueI12ACE_MT_SYNCH22ACE_System_Time_PolicyE12dequeue_headERP17ACE_Message_BlockP14ACE_Time_Value
FN:1979,_ZN17ACE_Message_QueueI12ACE_MT_SYNCH22ACE_System_Time_PolicyE12dequeue_prioERP17ACE_Message_BlockP14ACE_Time_Value
FNDA:0,_ZN17ACE_Message_QueueI12ACE_MT_SYNCH22ACE_System_Time_PolicyE12dequeue_prioERP17ACE_Message_BlockP14ACE_Time_Value
FN:1979,_ZN17ACE_Message_QueueI14ACE_NULL_SYNCH22ACE_System_Time_PolicyE12dequeue_prioERP17ACE_Message_BlockP14ACE_Time_Value
FNDA:0,_ZN17ACE_Message_QueueI14ACE_NULL_SYNCH22ACE_System_Time_PolicyE12dequeue_prioERP17ACE_Message_BlockP14ACE_Time_Value
FN:2002,_ZN17ACE_Message_QueueI14ACE_NULL_SYNCH22ACE_System_Time_PolicyE12dequeue_tailERP17ACE_Message_BlockP14ACE_Time_Value
FNDA:0,_ZN17ACE_Message_QueueI14ACE_NULL_SYNCH22ACE_System_Time_PolicyE12dequeue_tailERP17ACE_Message_BlockP14ACE_Time_Value
FN:2002,_ZN17ACE_Message_QueueI12ACE_MT_SYNCH22ACE_System_Time_PolicyE12dequeue_tailERP17ACE_Message_BlockP14ACE_Time_Value
FNDA:0,_ZN17ACE_Message_QueueI12ACE_MT_SYNCH22ACE_System_Time_PolicyE12dequeue_tailERP17ACE_Message_BlockP14ACE_Time_Value
FN:2025,_ZN17ACE_Message_QueueI14ACE_NULL_SYNCH22ACE_System_Time_PolicyE16dequeue_deadlineERP17ACE_Message_BlockP14ACE_Time_Value
FNDA:0,_ZN17ACE_Message_QueueI14ACE_NULL_SYNCH22ACE_System_Time_PolicyE16dequeue_deadlineERP17ACE_Message_BlockP14ACE_Time_Value
FN:2025,_ZN17ACE_Message_QueueI12ACE_MT_SYNCH22ACE_System_Time_PolicyE16dequeue_deadlineERP17ACE_Message_BlockP14ACE_Time_Value
FNDA:0,_ZN17ACE_Message_QueueI12ACE_MT_SYNCH22ACE_System_Time_PolicyE16dequeue_deadlineERP17ACE_Message_BlockP14ACE_Time_Value
FN:2044,_ZN17ACE_Message_QueueI12ACE_MT_SYNCH22ACE_System_Time_PolicyE6notifyEv
FNDA:0,_ZN17ACE_Message_QueueI12ACE_MT_SYNCH22ACE_System_Time_PolicyE6notifyEv
FN:2044,_ZN17ACE_Message_QueueI14ACE_NULL_SYNCH22ACE_System_Time_PolicyE6notifyEv
FNDA:0,_ZN17ACE_Message_QueueI14ACE_NULL_SYNCH22ACE_System_Time_PolicyE6notifyEv
DA:791,0
DA:795,0
DA:791,0
DA:795,0
DA:799,0
DA:803,0
DA:799,0
DA:803,0
DA:807,0
DA:811,0
DA:812,0
DA:807,0
DA:811,0
DA:812,0
DA:817,0
DA:820,0
DA:817,0
DA:820,0
DA:826,0
DA:829,0
DA:826,0
DA:829,0
DA:835,0
DA:838,0
DA:840,0
DA:841,0
DA:835,0
DA:838,0
DA:840,0
DA:846,0
DA:849,0
DA:851,0
DA:852,0
DA:846,0
DA:849,0
DA:851,0
DA:855,0
DA:858,0
DA:860,0
DA:861,0
DA:855,0
DA:858,0
DA:860,0
DA:864,0
DA:867,0
DA:869,0
DA:870,0
DA:864,0
DA:867,0
DA:869,0
DA:873,0
DA:876,0
DA:878,0
DA:879,0
DA:873,0
DA:876,0
DA:878,0
DA:882,0
DA:885,0
DA:887,0
DA:888,0
DA:882,0
DA:885,0
DA:887,0
DA:891,0
DA:894,0
DA:896,0
DA:897,0
DA:891,0
DA:894,0
DA:896,0
DA:900,0
DA:903,0
DA:905,0
DA:906,0
DA:900,0
DA:903,0
DA:905,0
DA:909,0
DA:912,0
DA:914,0
DA:915,0
DA:909,0
DA:912,0
DA:914,0
DA:918,0
DA:921,0
DA:923,0
DA:924,0
DA:918,0
DA:921,0
DA:923,0
DA:927,0
DA:930,0
DA:932,0
DA:933,0
DA:927,0
DA:930,0
DA:932,0
DA:936,0
DA:939,0
DA:941,0
DA:942,0
DA:936,0
DA:939,0
DA:941,0
DA:945,0
DA:949,0
DA:945,0
DA:949,0
DA:953,0
DA:957,0
DA:953,0
DA:957,0
DA:961,0
DA:963,0
DA:961,0
DA:963,0
DA:981,0
DA:1022,0
DA:981,0
DA:1022,0
DA:1025,0
DA:1028,0
DA:1030,0
DA:1031,0
DA:1025,0
DA:1028,0
DA:1030,0
DA:1034,0
DA:1037,0
DA:1039,0
DA:1040,0
DA:1034,0
DA:1037,0
DA:1039,0
DA:1043,52
DA:1047,52
DA:1048,104
DA:1056,52
DA:1057,0
DA:1081,52
DA:1043,0
DA:1047,0
DA:1048,0
DA:1056,0
DA:1057,0
DA:1081,0
DA:1084,52
DA:1095,52
DA:1084,52
DA:1087,52
DA:1088,0
DA:1095,104
DA:1084,0
DA:1095,0
DA:1084,0
DA:1087,0
DA:1088,0
DA:1095,0
DA:1098,0
DA:1100,0
DA:1104,0
DA:1106,0
DA:1108,0
DA:1109,0
DA:1110,0
DA:1113,0
DA:1114,0
DA:1115,0
DA:1117,0
DA:1118,0
DA:1122,0
DA:1133,0
DA:1098,0
DA:1100,0
DA:1104,0
DA:1106,0
DA:1108,0
DA:1109,0
DA:1110,0
DA:1113,0
DA:1114,0
DA:1115,0
DA:1117,0
DA:1118,0
DA:1122,0
DA:1133,0
DA:1141,52
DA:1146,52
DA:1147,52
DA:1148,52
DA:1149,52
DA:1150,52
DA:1151,52
DA:1152,52
DA:1153,52
DA:1154,52
DA:1155,52
DA:1141,0
DA:1146,0
DA:1147,0
DA:1148,0
DA:1149,0
DA:1150,0
DA:1151,0
DA:1152,0
DA:1153,0
DA:1154,0
DA:1155,0
DA:1162,0
DA:1165,0
DA:1167,0
DA:1170,0
DA:1171,0
DA:1173,0
DA:1174,0
DA:1176,0
DA:1179,0
DA:1162,0
DA:1165,0
DA:1167,0
DA:1170,0
DA:1171,0
DA:1173,0
DA:1174,0
DA:1176,0
DA:1179,0
DA:1183,0
DA:1186,0
DA:1187,0
DA:1188,0
DA:1183,0
DA:1186,0
DA:1187,0
DA:1188,0
DA:1192,0
DA:1195,0
DA:1198,0
DA:1199,0
DA:1192,0
DA:1195,0
DA:1198,0
DA:1204,0
DA:1207,0
DA:1211,0
DA:1214,0
DA:1204,0
DA:1207,0
DA:1211,0
DA:1214,0
DA:1215,0
DA:1218,0
DA:1220,0
DA:1221,0
DA:1222,0
DA:1218,0
DA:1220,0
DA:1221,0
DA:1222,0
DA:1226,0
DA:1229,0
DA:1230,0
DA:1231,0
DA:1226,0
DA:1229,0
DA:1230,0
DA:1231,0
DA:1238,0
DA:1242,0
DA:1243,0
DA:1250,0
DA:1251,0
DA:1252,0
DA:1253,0
DA:1254,0
DA:1256,0
DA:1257,0
DA:1258,0
DA:1259,0
DA:1260,0
DA:1264,0
DA:1266,0
DA:1267,0
DA:1269,0
DA:1275,0
DA:1276,0
DA:1277,0
DA:1280,0
DA:1281,0
DA:1283,0
DA:1238,0
DA:1242,0
DA:1243,0
DA:1250,0
DA:1251,0
DA:1252,0
DA:1253,0
DA:1254,0
DA:1256,0
DA:1257,0
DA:1258,0
DA:1259,0
DA:1260,0
DA:1264,0
DA:1266,0
DA:1267,0
DA:1269,0
DA:1275,0
DA:1276,0
DA:1277,0
DA:1280,0
DA:1281,0
DA:1283,0
DA:1289,0
DA:1293,0
DA:1294,0
DA:1301,0
DA:1302,0
DA:1303,0
DA:1304,0
DA:1305,0
DA:1307,0
DA:1308,0
DA:1309,0
DA:1310,0
DA:1311,0
DA:1314,0
DA:1315,0
DA:1317,0
DA:1318,0
DA:1320,0
DA:1322,0
DA:1324,0
DA:1325,0
DA:1327,0
DA:1289,0
DA:1293,0
DA:1294,0
DA:1301,0
DA:1302,0
DA:1303,0
DA:1304,0
DA:1305,0
DA:1307,0
DA:1308,0
DA:1309,0
DA:1310,0
DA:1311,0
DA:1314,0
DA:1315,0
DA:1317,0
DA:1318,0
DA:1320,0
DA:1322,0
DA:1324,0
DA:1325,0
DA:1327,0
DA:1334,0
DA:1338,0
DA:1339,0
DA:1345,0
DA:1347,0
DA:1350,0
DA:1353,0
DA:1359,0
DA:1360,0
DA:1361,0
DA:1362,0
DA:1365,0
DA:1367,0
DA:1371,0
DA:1372,0
DA:1376,0
DA:1383,0
DA:1384,0
DA:1385,0
DA:1386,0
DA:1391,0
DA:1392,0
DA:1393,0
DA:1395,0
DA:1396,0
DA:1398,0
DA:1334,0
DA:1338,0
DA:1339,0
DA:1345,0
DA:1347,0
DA:1350,0
DA:1353,0
DA:1359,0
DA:1360,0
DA:1361,0
DA:1362,0
DA:1365,0
DA:1367,0
DA:1371,0
DA:1372,0
DA:1376,0
DA:1383,0
DA:1384,0
DA:1385,0
DA:1386,0
DA:1391,0
DA:1392,0
DA:1393,0
DA:1395,0
DA:1396,0
DA:1398,0
DA:1405,0
DA:1467,0
DA:1405,0
DA:1467,0
DA:1476,0
DA:1478,0
DA:1479,0
DA:1483,0
DA:1484,0
DA:1486,0
DA:1487,0
DA:1490,0
DA:1492,0
DA:1493,0
DA:1494,0
DA:1497,0
DA:1498,0
DA:1499,0
DA:1501,0
DA:1502,0
DA:1505,0
DA:1506,0
DA:1514,0
DA:1515,0
DA:1516,0
DA:1518,0
DA:1476,0
DA:1478,0
DA:1479,0
DA:1483,0
DA:1484,0
DA:1486,0
DA:1487,0
DA:1490,0
DA:1492,0
DA:1493,0
DA:1494,0
DA:1497,0
DA:1498,0
DA:1499,0
DA:1501,0
DA:1502,0
DA:1505,0
DA:1506,0
DA:1514,0
DA:1515,0
DA:1516,0
DA:1518,0
DA:1527,0
DA:1531,0
DA:1532,0
DA:1536,0
DA:1537,0
DA:1539,0
DA:1540,0
DA:1541,0
DA:1545,0
DA:1547,0
DA:1548,0
DA:1554,0
DA:1555,0
DA:1559,0
DA:1560,0
DA:1562,0
DA:1564,0
DA:1565,0
DA:1567,0
DA:1570,0
DA:1572,0
DA:1573,0
DA:1574,0
DA:1577,0
DA:1578,0
DA:1579,0
DA:1581,0
DA:1582,0
DA:1585,0
DA:1586,0
DA:1590,0
DA:1591,0
DA:1592,0
DA:1594,0
DA:1527,0
DA:1531,0
DA:1532,0
DA:1536,0
DA:1537,0
DA:1539,0
DA:1540,0
DA:1541,0
DA:1545,0
DA:1547,0
DA:1548,0
DA:1554,0
DA:1555,0
DA:1559,0
DA:1560,0
DA:1562,0
DA:1564,0
DA:1565,0
DA:1567,0
DA:1570,0
DA:1572,0
DA:1573,0
DA:1574,0
DA:1577,0
DA:1578,0
DA:1579,0
DA:1581,0
DA:1582,0
DA:1585,0
DA:1586,0
DA:1590,0
DA:1591,0
DA:1592,0
DA:1594,0
DA:1602,0
DA:1604,0
DA:1605,0
DA:1609,0
DA:1610,0
DA:1612,0
DA:1613,0
DA:1617,0
DA:1618,0
DA:1621,0
DA:1622,0
DA:1623,0
DA:1626,0
DA:1627,0
DA:1628,0
DA:1630,0
DA:1631,0
DA:1634,0
DA:1635,0
DA:1639,0
DA:1640,0
DA:1641,0
DA:1643,0
DA:1602,0
DA:1604,0
DA:1605,0
DA:1609,0
DA:1610,0
DA:1612,0
DA:1613,0
DA:1617,0
DA:1618,0
DA:1621,0
DA:1622,0
DA:1623,0
DA:1626,0
DA:1627,0
DA:1628,0
DA:1630,0
DA:1631,0
DA:1634,0
DA:1635,0
DA:1639,0
DA:1640,0
DA:1641,0
DA:1643,0
DA:1651,0
DA:1714,0
DA:1651,0
DA:1714,0
DA:1721,0
DA:1725,0
DA:1727,0
DA:1729,0
DA:1730,0
DA:1734,0
DA:1735,0
DA:1737,0
DA:1738,0
DA:1739,0
DA:1721,0
DA:1725,0
DA:1727,0
DA:1729,0
DA:1730,0
DA:1734,0
DA:1735,0
DA:1737,0
DA:1738,0
DA:1742,0
DA:1744,0
DA:1748,0
DA:1750,0
DA:1752,0
DA:1753,0
DA:1754,0
DA:1755,0
DA:1757,0
DA:1759,0
DA:1760,0
DA:1761,0
DA:1764,0
DA:1742,0
DA:1744,0
DA:1748,0
DA:1750,0
DA:1752,0
DA:1753,0
DA:1754,0
DA:1755,0
DA:1757,0
DA:1759,0
DA:1760,0
DA:1761,0
DA:1764,0
DA:1768,0
DA:1770,0
DA:1774,0
DA:1776,0
DA:1778,0
DA:1779,0
DA:1780,0
DA:1781,0
DA:1783,0
DA:1785,0
DA:1786,0
DA:1787,0
DA:1790,0
DA:1768,0
DA:1770,0
DA:1774,0
DA:1776,0
DA:1778,0
DA:1779,0
DA:1780,0
DA:1781,0
DA:1783,0
DA:1785,0
DA:1786,0
DA:1787,0
DA:1790,0
DA:1797,0
DA:1801,0
DA:1802,0
DA:1804,0
DA:1806,0
DA:1808,0
DA:1809,0
DA:1812,0
DA:1813,0
DA:1815,0
DA:1816,0
DA:1817,0
DA:1822,0
DA:1823,0
DA:1825,0
DA:1826,0
DA:1827,0
DA:1797,0
DA:1801,0
DA:1802,0
DA:1804,0
DA:1806,0
DA:1808,0
DA:1809,0
DA:1812,0
DA:1813,0
DA:1815,0
DA:1816,0
DA:1817,0
DA:1822,0
DA:1825,0
DA:1826,0
DA:1827,0
DA:1835,0
DA:1839,0
DA:1840,0
DA:1842,0
DA:1844,0
DA:1846,0
DA:1847,0
DA:1850,0
DA:1851,0
DA:1853,0
DA:1855,0
DA:1856,0
DA:1861,0
DA:1862,0
DA:1863,0
DA:1864,0
DA:1865,0
DA:1835,0
DA:1839,0
DA:1840,0
DA:1842,0
DA:1844,0
DA:1846,0
DA:1847,0
DA:1850,0
DA:1851,0
DA:1853,0
DA:1855,0
DA:1856,0
DA:1861,0
DA:1863,0
DA:1864,0
DA:1865,0
DA:1873,0
DA:1877,0
DA:1878,0
DA:1880,0
DA:1882,0
DA:1884,0
DA:1885,0
DA:1888,0
DA:1889,0
DA:1891,0
DA:1893,0
DA:1894,0
DA:1899,0
DA:1900,0
DA:1901,0
DA:1902,0
DA:1903,0
DA:1873,0
DA:1877,0
DA:1878,0
DA:1880,0
DA:1882,0
DA:1884,0
DA:1885,0
DA:1888,0
DA:1889,0
DA:1891,0
DA:1893,0
DA:1894,0
DA:1899,0
DA:1901,0
DA:1902,0
DA:1903,0
DA:1907,0
DA:1911,0
DA:1907,0
DA:1911,0
DA:1918,0
DA:1922,0
DA:1923,0
DA:1925,0
DA:1927,0
DA:1929,0
DA:1930,0
DA:1933,0
DA:1934,0
DA:1936,0
DA:1938,0
DA:1939,0
DA:1944,0
DA:1945,0
DA:1946,0
DA:1947,0
DA:1948,0
DA:1918,0
DA:1922,0
DA:1923,0
DA:1925,0
DA:1927,0
DA:1929,0
DA:1930,0
DA:1933,0
DA:1934,0
DA:1936,0
DA:1938,0
DA:1939,0
DA:1944,0
DA:1946,0
DA:1947,0
DA:1948,0
DA:1956,0
DA:1960,0
DA:1962,0
DA:1964,0
DA:1965,0
DA:1968,0
DA:1969,0
DA:1971,0
DA:1972,0
DA:1956,0
DA:1960,0
DA:1962,0
DA:1964,0
DA:1965,0
DA:1968,0
DA:1969,0
DA:1971,0
DA:1979,0
DA:1983,0
DA:1985,0
DA:1987,0
DA:1988,0
DA:1991,0
DA:1992,0
DA:1994,0
DA:1995,0
DA:1979,0
DA:1983,0
DA:1985,0
DA:1987,0
DA:1988,0
DA:1991,0
DA:1992,0
DA:1994,0
DA:2002,0
DA:2006,0
DA:2008,0
DA:2010,0
DA:2011,0
DA:2014,0
DA:2015,0
DA:2017,0
DA:2018,0
DA:2002,0
DA:2006,0
DA:2008,0
DA:2010,0
DA:2011,0
DA:2014,0
DA:2015,0
DA:2017,0
DA:2025,0
DA:2029,0
DA:2031,0
DA:2033,0
DA:2034,0
DA:2037,0
DA:2038,0
DA:2040,0
DA:2041,0
DA:2025,0
DA:2029,0
DA:2031,0
DA:2033,0
DA:2034,0
DA:2037,0
DA:2038,0
DA:2040,0
DA:2044,0
DA:2049,0
DA:2050,0
DA:2052,0
DA:2044,0
DA:2049,0
DA:2050,0
DA:2052,0
end_of_record
SF:/usr/include/c++/11/new
FN:174,_ZnwmPv
FNDA:432,_ZnwmPv
FN:180,_ZdlPvS_
FNDA:0,_ZdlPvS_
DA:174,432
DA:175,432
DA:180,0
end_of_record
SF:/usr/include/ace/SOCK_Acceptor.inl
FN:5,_ZN17ACE_SOCK_AcceptorD2Ev
FNDA:52,_ZN17ACE_SOCK_AcceptorD2Ev
DA:5,52
DA:8,52
end_of_record
SF:/usr/include/c++/11/bits/hashtable.h
FN:297,_ZNSt10_HashtableINSt7__cxx1112basic_stringIcSt11char_traitsIcESaIcEEESt4pairIKS5_MN11MyFtpServer15Command_HandlerEFvRKNS8_9cmd_info_EEESaISF_ENSt8__detail10_Select1stESt8equal_toIS5_ESt4hashIS5_ENSH_18_Mod_range_hashingENSH_20_Default_ranged_hashENSH_20_Prime_rehash_policyENSH_17_Hashtable_traitsILb1ELb0ELb1EEEE12_Scoped_nodeC2EPNSH_10_Hash_nodeISF_Lb1EEEPNSH_16_Hashtable_allocISaISV_EEE
FNDA:38,_ZNSt10_HashtableINSt7__cxx1112basic_stringIcSt11char_traitsIcESaIcEEESt4pairIKS5_MN11MyFtpServer15Command_HandlerEFvRKNS8_9cmd_info_EEESaISF_ENSt8__detail10_Select1stESt8equal_toIS5_ESt4hashIS5_ENSH_18_Mod_range_hashingENSH_20_Default_ranged_hashENSH_20_Prime_rehash_policyENSH_17_Hashtable_traitsILb1ELb0ELb1EEEE12_Scoped_nodeC2EPNSH_10_Hash_nodeISF_Lb1EEEPNSH_16_Hashtable_allocISaISV_EEE
FN:308,_ZNSt10_HashtableINSt7__cxx1112basic_stringIcSt11char_traitsIcESaIcEEESt4pairIKS5_MN11MyFtpServer15Command_HandlerEFvRKNS8_9cmd_info_EEESaISF_ENSt8__detail10_Select1stESt8equal_toIS5_ESt4hashIS5_ENSH_18_Mod_range_hashingENSH_20_Default_ranged_hashENSH_20_Prime_rehash_policyENSH_17_Hashtable_traitsILb1ELb0ELb1EEEE12_Scoped_nodeD2Ev
FNDA:38,_ZNSt10_HashtableINSt7__cxx1112basic_stringIcSt11char_traitsIcESaIcEEESt4pairIKS5_MN11MyFtpServer15Command_HandlerEFvRKNS8_9cmd_info_EEESaISF_ENSt8__detail10_Select1stESt8equal_toIS5_ESt4hashIS5_ENSH_18_Mod_range_hashingENSH_20_Default_ranged_hashENSH_20_Prime_rehash_policyENSH_17_Hashtable_traitsILb1ELb0ELb1EEEE12_Scoped_nodeD2Ev
FN:421,_ZNKSt10_HashtableINSt7__cxx1112basic_stringIcSt11char_traitsIcESaIcEEESt4pairIKS5_MN11MyFtpServer15Command_HandlerEFvRKNS8_9cmd_info_EEESaISF_ENSt8__detail10_Select1stESt8equal_toIS5_ESt4hashIS5_ENSH_18_Mod_range_hashingENSH_20_Default_ranged_hashENSH_20_Prime_rehash_policyENSH_17_Hashtable_traitsILb1ELb0ELb1EEEE21_M_uses_single_bucketEPPNSH_15_Hash_node_baseE
FNDA:6,_ZNKSt10_HashtableINSt7__cxx1112basic_stringIcSt11char_traitsIcESaIcEEESt4pairIKS5_MN11MyFtpServer15Command_HandlerEFvRKNS8_9cmd_info_EEESaISF_ENSt8__detail10_Select1stESt8equal_toIS5_ESt4hashIS5_ENSH_18_Mod_range_hashingENSH_20_Default_ranged_hashENSH_20_Prime_rehash_policyENSH_17_Hashtable_traitsILb1ELb0ELb1EEEE21_M_uses_single_bucketEPPNSH_15_Hash_node_baseE
FN:432,_ZNSt10_HashtableINSt7__cxx1112basic_stringIcSt11char_traitsIcESaIcEEESt4pairIKS5_MN11MyFtpServer15Command_HandlerEFvRKNS8_9cmd_info_EEESaISF_ENSt8__detail10_Select1stESt8equal_toIS5_ESt4hashIS5_ENSH_18_Mod_range_hashingENSH_20_Default_ranged_hashENSH_20_Prime_rehash_policyENSH_17_Hashtable_traitsILb1ELb0ELb1EEEE19_M_allocate_bucketsEm
FNDA:4,_ZNSt10_HashtableINSt7__cxx1112basic_stringIcSt11char_traitsIcESaIcEEESt4pairIKS5_MN11MyFtpServer15Command_HandlerEFvRKNS8_9cmd_info_EEESaISF_ENSt8__detail10_Select1stESt8equal_toIS5_ESt4hashIS5_ENSH_18_Mod_range_hashingENSH_20_Default_ranged_hashENSH_20_Prime_rehash_policyENSH_17_Hashtable_traitsILb1ELb0ELb1EEEE19_M_allocate_bucketsEm
FN:444,_ZNSt10_HashtableINSt7__cxx1112basic_stringIcSt11char_traitsIcESaIcEEESt4pairIKS5_MN11MyFtpServer15Command_HandlerEFvRKNS8_9cmd_info_EEESaISF_ENSt8__detail10_Select1stESt8equal_toIS5_ESt4hashIS5_ENSH_18_Mod_range_hashingENSH_20_Default_ranged_hashENSH_20_Prime_rehash_policyENSH_17_Hashtable_traitsILb1ELb0ELb1EEEE21_M_deallocate_bucketsEPPNSH_15_Hash_node_baseEm
FNDA:6,_ZNSt10_HashtableINSt7__cxx1112basic_stringIcSt11char_traitsIcESaIcEEESt4pairIKS5_MN11MyFtpServer15Command_HandlerEFvRKNS8_9cmd_info_EEESaISF_ENSt8__detail10_Select1stESt8equal_toIS5_ESt4hashIS5_ENSH_18_Mod_range_hashingENSH_20_Default_ranged_hashENSH_20_Prime_rehash_policyENSH_17_Hashtable_traitsILb1ELb0ELb1EEEE21_M_deallocate_bucketsEPPNSH_15_Hash_node_baseEm
FN:453,_ZNSt10_HashtableINSt7__cxx1112basic_stringIcSt11char_traitsIcESaIcEEESt4pairIKS5_MN11MyFtpServer15Command_HandlerEFvRKNS8_9cmd_info_EEESaISF_ENSt8__detail10_Select1stESt8equal_toIS5_ESt4hashIS5_ENSH_18_Mod_range_hashingENSH_20_Default_ranged_hashENSH_20_Prime_rehash_policyENSH_17_Hashtable_traitsILb1ELb0ELb1EEEE21_M_deallocate_bucketsEv
FNDA:6,_ZNSt10_HashtableINSt7__cxx1112basic_stringIcSt11char_traitsIcESaIcEEESt4pairIKS5_MN11MyFtpServer15Command_HandlerEFvRKNS8_9cmd_info_EEESaISF_ENSt8__detail10_Select1stESt8equal_toIS5_ESt4hashIS5_ENSH_18_Mod_range_hashingENSH_20_Default_ranged_hashENSH_20_Prime_rehash_policyENSH_17_Hashtable_traitsILb1ELb0ELb1EEEE21_M_deallocate_bucketsEv
FN:462,_ZNKSt10_HashtableINSt7__cxx1112basic_stringIcSt11char_traitsIcESaIcEEESt4pairIKS5_MN11MyFtpServer15Command_HandlerEFvRKNS8_9cmd_info_EEESaISF_ENSt8__detail10_Select1stESt8equal_toIS5_ESt4hashIS5_ENSH_18_Mod_range_hashingENSH_20_Default_ranged_hashENSH_20_Prime_rehash_policyENSH_17_Hashtable_traitsILb1ELb0ELb1EEEE8_M_beginEv
FNDA:6,_ZNKSt10_HashtableINSt7__cxx1112basic_stringIcSt11char_traitsIcESaIcEEESt4pairIKS5_MN11MyFtpServer15Command_HandlerEFvRKNS8_9cmd_info_EEESaISF_ENSt8__detail10_Select1stESt8equal_toIS5_ESt4hashIS5_ENSH_18_Mod_range_hashingENSH_20_Default_ranged_hashENSH_20_Prime_rehash_policyENSH_17_Hashtable_traitsILb1ELb0ELb1EEEE8_M_beginEv
FN:484,_ZNSt10_HashtableINSt7__cxx1112basic_stringIcSt11char_traitsIcESaIcEEESt4pairIKS5_MN11MyFtpServer15Command_HandlerEFvRKNS8_9cmd_info_EEESaISF_ENSt8__detail10_Select1stESt8equal_toIS5_ESt4hashIS5_ENSH_18_Mod_range_hashingENSH_20_Default_ranged_hashENSH_20_Prime_rehash_policyENSH_17_Hashtable_traitsILb1ELb0ELb1EEEEC2ERKSM_RKSK_RKSG_
FNDA:2,_ZNSt10_HashtableINSt7__cxx1112basic_stringIcSt11char_traitsIcESaIcEEESt4pairIKS5_MN11MyFtpServer15Command_HandlerEFvRKNS8_9cmd_info_EEESaISF_ENSt8__detail10_Select1stESt8equal_toIS5_ESt4hashIS5_ENSH_18_Mod_range_hashingENSH_20_Default_ranged_hashENSH_20_Prime_rehash_policyENSH_17_Hashtable_traitsILb1ELb0ELb1EEEEC2ERKSM_RKSK_RKSG_
FN:569,_ZNSt10_HashtableINSt7__cxx1112basic_stringIcSt11char_traitsIcESaIcEEESt4pairIKS5_MN11MyFtpServer15Command_HandlerEFvRKNS8_9cmd_info_EEESaISF_ENSt8__detail10_Select1stESt8equal_toIS5_ESt4hashIS5_ENSH_18_Mod_range_hashingENSH_20_Default_ranged_hashENSH_20_Prime_rehash_policyENSH_17_Hashtable_traitsILb1ELb0ELb1EEEEC2ESt16initializer_listISF_EmRKSM_RKSK_RKSG_
FNDA:2,_ZNSt10_HashtableINSt7__cxx1112basic_stringIcSt11char_traitsIcESaIcEEESt4pairIKS5_MN11MyFtpServer15Command_HandlerEFvRKNS8_9cmd_info_EEESaISF_ENSt8__detail10_Select1stESt8equal_toIS5_ESt4hashIS5_ENSH_18_Mod_range_hashingENSH_20_Default_ranged_hashENSH_20_Prime_rehash_policyENSH_17_Hashtable_traitsILb1ELb0ELb1EEEEC2ESt16initializer_listISF_EmRKSM_RKSK_RKSG_
FN:629,_ZNSt10_HashtableINSt7__cxx1112basic_stringIcSt11char_traitsIcESaIcEEESt4pairIKS5_MN11MyFtpServer15Command_HandlerEFvRKNS8_9cmd_info_EEESaISF_ENSt8__detail10_Select1stESt8equal_toIS5_ESt4hashIS5_ENSH_18_Mod_range_hashingENSH_20_Default_ranged_hashENSH_20_Prime_rehash_policyENSH_17_Hashtable_traitsILb1ELb0ELb1EEEE3endEv
FNDA:4,_ZNSt10_HashtableINSt7__cxx1112basic_stringIcSt11char_traitsIcESaIcEEESt4pairIKS5_MN11MyFtpServer15Command_HandlerEFvRKNS8_9cmd_info_EEESaISF_ENSt8__detail10_Select1stESt8equal_toIS5_ESt4hashIS5_ENSH_18_Mod_range_hashingENSH_20_Default_ranged_hashENSH_20_Prime_rehash_policyENSH_17_Hashtable_traitsILb1ELb0ELb1EEEE3endEv
FN:790,_ZNKSt10_HashtableINSt7__cxx1112basic_stringIcSt11char_traitsIcESaIcEEESt4pairIKS5_MN11MyFtpServer15Command_HandlerEFvRKNS8_9cmd_info_EEESaISF_ENSt8__detail10_Select1stESt8equal_toIS5_ESt4hashIS5_ENSH_18_Mod_range_hashingENSH_20_Default_ranged_hashENSH_20_Prime_rehash_policyENSH_17_Hashtable_traitsILb1ELb0ELb1EEEE15_M_bucket_indexERKNSH_16_Hash_node_valueISF_Lb1EEE
FNDA:42,_ZNKSt10_HashtableINSt7__cxx1112basic_stringIcSt11char_traitsIcESaIcEEESt4pairIKS5_MN11MyFtpServer15Command_HandlerEFvRKNS8_9cmd_info_EEESaISF_ENSt8__detail10_Select1stESt8equal_toIS5_ESt4hashIS5_ENSH_18_Mod_range_hashingENSH_20_Default_ranged_hashENSH_20_Prime_rehash_policyENSH_17_Hashtable_traitsILb1ELb0ELb1EEEE15_M_bucket_indexERKNSH_16_Hash_node_valueISF_Lb1EEE
FN:794,_ZNKSt10_HashtableINSt7__cxx1112basic_stringIcSt11char_traitsIcESaIcEEESt4pairIKS5_MN11MyFtpServer15Command_HandlerEFvRKNS8_9cmd_info_EEESaISF_ENSt8__detail10_Select1stESt8equal_toIS5_ESt4hashIS5_ENSH_18_Mod_range_hashingENSH_20_Default_ranged_hashENSH_20_Prime_rehash_policyENSH_17_Hashtable_traitsILb1ELb0ELb1EEEE15_M_bucket_indexEm
FNDA:46,_ZNKSt10_HashtableINSt7__cxx1112basic_stringIcSt11char_traitsIcESaIcEEESt4pairIKS5_MN11MyFtpServer15Command_HandlerEFvRKNS8_9cmd_info_EEESaISF_ENSt8__detail10_Select1stESt8equal_toIS5_ESt4hashIS5_ENSH_18_Mod_range_hashingENSH_20_Default_ranged_hashENSH_20_Prime_rehash_policyENSH_17_Hashtable_traitsILb1ELb0ELb1EEEE15_M_bucket_indexEm
FN:807,_ZNKSt10_HashtableINSt7__cxx1112basic_stringIcSt11char_traitsIcESaIcEEESt4pairIKS5_MN11MyFtpServer15Command_HandlerEFvRKNS8_9cmd_info_EEESaISF_ENSt8__detail10_Select1stESt8equal_toIS5_ESt4hashIS5_ENSH_18_Mod_range_hashingENSH_20_Default_ranged_hashENSH_20_Prime_rehash_policyENSH_17_Hashtable_traitsILb1ELb0ELb1EEEE12_M_find_nodeEmRS7_m
FNDA:42,_ZNKSt10_HashtableINSt7__cxx1112basic_stringIcSt11char_traitsIcESaIcEEESt4pairIKS5_MN11MyFtpServer15Command_HandlerEFvRKNS8_9cmd_info_EEESaISF_ENSt8__detail10_Select1stESt8equal_toIS5_ESt4hashIS5_ENSH_18_Mod_range_hashingENSH_20_Default_ranged_hashENSH_20_Prime_rehash_policyENSH_17_Hashtable_traitsILb1ELb0ELb1EEEE12_M_find_nodeEmRS7_m
FN:1120,_ZNSt10_HashtableINSt7__cxx1112basic_stringIcSt11char_traitsIcESaIcEEESt4pairIKS5_MN11MyFtpServer15Command_HandlerEFvRKNS8_9cmd_info_EEESaISF_ENSt8__detail10_Select1stESt8equal_toIS5_ESt4hashIS5_ENSH_18_Mod_range_hashingENSH_20_Default_ranged_hashENSH_20_Prime_rehash_policyENSH_17_Hashtable_traitsILb1ELb0ELb1EEEEC2EmRKSM_RKSK_RKSG_
FNDA:2,_ZNSt10_HashtableINSt7__cxx1112basic_stringIcSt11char_traitsIcESaIcEEESt4pairIKS5_MN11MyFtpServer15Command_HandlerEFvRKNS8_9cmd_info_EEESaISF_ENSt8__detail10_Select1stESt8equal_toIS5_ESt4hashIS5_ENSH_18_Mod_range_hashingENSH_20_Default_ranged_hashENSH_20_Prime_rehash_policyENSH_17_Hashtable_traitsILb1ELb0ELb1EEEEC2EmRKSM_RKSK_RKSG_
FN:1139,_ZNSt10_HashtableINSt7__cxx1112basic_stringIcSt11char_traitsIcESaIcEEESt4pairIKS5_MN11MyFtpServer15Command_HandlerEFvRKNS8_9cmd_info_EEESaISF_ENSt8__detail10_Select1stESt8equal_toIS5_ESt4hashIS5_ENSH_18_Mod_range_hashingENSH_20_Default_ranged_hashENSH_20_Prime_rehash_policyENSH_17_Hashtable_traitsILb1ELb0ELb1EEEEC2IPKSF_EET_SW_mRKSM_RKSK_RKSG_St17integral_constantIbLb1EE
FNDA:2,_ZNSt10_HashtableINSt7__cxx1112basic_stringIcSt11char_traitsIcESaIcEEESt4pairIKS5_MN11MyFtpServer15Command_HandlerEFvRKNS8_9cmd_info_EEESaISF_ENSt8__detail10_Select1stESt8equal_toIS5_ESt4hashIS5_ENSH_18_Mod_range_hashingENSH_20_Default_ranged_hashENSH_20_Prime_rehash_policyENSH_17_Hashtable_traitsILb1ELb0ELb1EEEEC2IPKSF_EET_SW_mRKSM_RKSK_RKSG_St17integral_constantIbLb1EE
FN:1528,_ZNSt10_HashtableINSt7__cxx1112basic_stringIcSt11char_traitsIcESaIcEEESt4pairIKS5_MN11MyFtpServer15Command_HandlerEFvRKNS8_9cmd_info_EEESaISF_ENSt8__detail10_Select1stESt8equal_toIS5_ESt4hashIS5_ENSH_18_Mod_range_hashingENSH_20_Default_ranged_hashENSH_20_Prime_rehash_policyENSH_17_Hashtable_traitsILb1ELb0ELb1EEEED2Ev
FNDA:2,_ZNSt10_HashtableINSt7__cxx1112basic_stringIcSt11char_traitsIcESaIcEEESt4pairIKS5_MN11MyFtpServer15Command_HandlerEFvRKNS8_9cmd_info_EEESaISF_ENSt8__detail10_Select1stESt8equal_toIS5_ESt4hashIS5_ENSH_18_Mod_range_hashingENSH_20_Default_ranged_hashENSH_20_Prime_rehash_policyENSH_17_Hashtable_traitsILb1ELb0ELb1EEEED2Ev
FN:1588,_ZNSt10_HashtableINSt7__cxx1112basic_stringIcSt11char_traitsIcESaIcEEESt4pairIKS5_MN11MyFtpServer15Command_HandlerEFvRKNS8_9cmd_info_EEESaISF_ENSt8__detail10_Select1stESt8equal_toIS5_ESt4hashIS5_ENSH_18_Mod_range_hashingENSH_20_Default_ranged_hashENSH_20_Prime_rehash_policyENSH_17_Hashtable_traitsILb1ELb0ELb1EEEE4findERS7_
FNDA:4,_ZNSt10_HashtableINSt7__cxx1112basic_stringIcSt11char_traitsIcESaIcEEESt4pairIKS5_MN11MyFtpServer15Command_HandlerEFvRKNS8_9cmd_info_EEESaISF_ENSt8__detail10_Select1stESt8equal_toIS5_ESt4hashIS5_ENSH_18_Mod_range_hashingENSH_20_Default_ranged_hashENSH_20_Prime_rehash_policyENSH_17_Hashtable_traitsILb1ELb0ELb1EEEE4findERS7_
FN:1827,_ZNKSt10_HashtableINSt7__cxx1112basic_stringIcSt11char_traitsIcESaIcEEESt4pairIKS5_MN11MyFtpServer15Command_HandlerEFvRKNS8_9cmd_info_EEESaISF_ENSt8__detail10_Select1stESt8equal_toIS5_ESt4hashIS5_ENSH_18_Mod_range_hashingENSH_20_Default_ranged_hashENSH_20_Prime_rehash_policyENSH_17_Hashtable_traitsILb1ELb0ELb1EEEE19_M_find_before_nodeEmRS7_m
FNDA:42,_ZNKSt10_HashtableINSt7__cxx1112basic_stringIcSt11char_traitsIcESaIcEEESt4pairIKS5_MN11MyFtpServer15Command_HandlerEFvRKNS8_9cmd_info_EEESaISF_ENSt8__detail10_Select1stESt8equal_toIS5_ESt4hashIS5_ENSH_18_Mod_range_hashingENSH_20_Default_ranged_hashENSH_20_Prime_rehash_policyENSH_17_Hashtable_traitsILb1ELb0ELb1EEEE19_M_find_before_nodeEmRS7_m
FN:1886,_ZNSt10_HashtableINSt7__cxx1112basic_stringIcSt11char_traitsIcESaIcEEESt4pairIKS5_MN11MyFtpServer15Command_HandlerEFvRKNS8_9cmd_info_EEESaISF_ENSt8__detail10_Select1stESt8equal_toIS5_ESt4hashIS5_ENSH_18_Mod_range_hashingENSH_20_Default_ranged_hashENSH_20_Prime_rehash_policyENSH_17_Hashtable_traitsILb1ELb0ELb1EEEE22_M_insert_bucket_beginEmPNSH_10_Hash_nodeISF_Lb1EEE
FNDA:38,_ZNSt10_HashtableINSt7__cxx1112basic_stringIcSt11char_traitsIcESaIcEEESt4pairIKS5_MN11MyFtpServer15Command_HandlerEFvRKNS8_9cmd_info_EEESaISF_ENSt8__detail10_Select1stESt8equal_toIS5_ESt4hashIS5_ENSH_18_Mod_range_hashingENSH_20_Default_ranged_hashENSH_20_Prime_rehash_policyENSH_17_Hashtable_traitsILb1ELb0ELb1EEEE22_M_insert_bucket_beginEmPNSH_10_Hash_nodeISF_Lb1EEE
FN:2008,_ZNSt10_HashtableINSt7__cxx1112basic_stringIcSt11char_traitsIcESaIcEEESt4pairIKS5_MN11MyFtpServer15Command_HandlerEFvRKNS8_9cmd_info_EEESaISF_ENSt8__detail10_Select1stESt8equal_toIS5_ESt4hashIS5_ENSH_18_Mod_range_hashingENSH_20_Default_ranged_hashENSH_20_Prime_rehash_policyENSH_17_Hashtable_traitsILb1ELb0ELb1EEEE21_M_insert_unique_nodeEmmPNSH_10_Hash_nodeISF_Lb1EEEm
FNDA:38,_ZNSt10_HashtableINSt7__cxx1112basic_stringIcSt11char_traitsIcESaIcEEESt4pairIKS5_MN11MyFtpServer15Command_HandlerEFvRKNS8_9cmd_info_EEESaISF_ENSt8__detail10_Select1stESt8equal_toIS5_ESt4hashIS5_ENSH_18_Mod_range_hashingENSH_20_Default_ranged_hashENSH_20_Prime_rehash_policyENSH_17_Hashtable_traitsILb1ELb0ELb1EEEE21_M_insert_unique_nodeEmmPNSH_10_Hash_nodeISF_Lb1EEEm
FN:2095,_ZNSt10_HashtableINSt7__cxx1112basic_stringIcSt11char_traitsIcESaIcEEESt4pairIKS5_MN11MyFtpServer15Command_HandlerEFvRKNS8_9cmd_info_EEESaISF_ENSt8__detail10_Select1stESt8equal_toIS5_ESt4hashIS5_ENSH_18_Mod_range_hashingENSH_20_Default_ranged_hashENSH_20_Prime_rehash_policyENSH_17_Hashtable_traitsILb1ELb0ELb1EEEE9_M_insertIRKSF_NSH_10_AllocNodeISaINSH_10_Hash_nodeISF_Lb1EEEEEEEES6_INSH_14_Node_iteratorISF_Lb0ELb1EEEbEOT_RKT0_St17integral_constantIbLb1EE
FNDA:38,_ZNSt10_HashtableINSt7__cxx1112basic_stringIcSt11char_traitsIcESaIcEEESt4pairIKS5_MN11MyFtpServer15Command_HandlerEFvRKNS8_9cmd_info_EEESaISF_ENSt8__detail10_Select1stESt8equal_toIS5_ESt4hashIS5_ENSH_18_Mod_range_hashingENSH_20_Default_ranged_hashENSH_20_Prime_rehash_policyENSH_17_Hashtable_traitsILb1ELb0ELb1EEEE9_M_insertIRKSF_NSH_10_AllocNodeISaINSH_10_Hash_nodeISF_Lb1EEEEEEEES6_INSH_14_Node_iteratorISF_Lb0ELb1EEEbEOT_RKT0_St17integral_constantIbLb1EE
FN:2316,_ZNSt10_HashtableINSt7__cxx1112basic_stringIcSt11char_traitsIcESaIcEEESt4pairIKS5_MN11MyFtpServer15Command_HandlerEFvRKNS8_9cmd_info_EEESaISF_ENSt8__detail10_Select1stESt8equal_toIS5_ESt4hashIS5_ENSH_18_Mod_range_hashingENSH_20_Default_ranged_hashENSH_20_Prime_rehash_policyENSH_17_Hashtable_traitsILb1ELb0ELb1EEEE5clearEv
FNDA:2,_ZNSt10_HashtableINSt7__cxx1112basic_stringIcSt11char_traitsIcESaIcEEESt4pairIKS5_MN11MyFtpServer15Command_HandlerEFvRKNS8_9cmd_info_EEESaISF_ENSt8__detail10_Select1stESt8equal_toIS5_ESt4hashIS5_ENSH_18_Mod_range_hashingENSH_20_Default_ranged_hashENSH_20_Prime_rehash_policyENSH_17_Hashtable_traitsILb1ELb0ELb1EEEE5clearEv
FN:2355,_ZNSt10_HashtableINSt7__cxx1112basic_stringIcSt11char_traitsIcESaIcEEESt4pairIKS5_MN11MyFtpServer15Command_HandlerEFvRKNS8_9cmd_info_EEESaISF_ENSt8__detail10_Select1stESt8equal_toIS5_ESt4hashIS5_ENSH_18_Mod_range_hashingENSH_20_Default_ranged_hashENSH_20_Prime_rehash_policyENSH_17_Hashtable_traitsILb1ELb0ELb1EEEE9_M_rehashEmRKm
FNDA:4,_ZNSt10_HashtableINSt7__cxx1112basic_stringIcSt11char_traitsIcESaIcEEESt4pairIKS5_MN11MyFtpServer15Command_HandlerEFvRKNS8_9cmd_info_EEESaISF_ENSt8__detail10_Select1stESt8equal_toIS5_ESt4hashIS5_ENSH_18_Mod_range_hashingENSH_20_Default_ranged_hashENSH_20_Prime_rehash_policyENSH_17_Hashtable_traitsILb1ELb0ELb1EEEE9_M_rehashEmRKm
FN:2378,_ZNSt10_HashtableINSt7__cxx1112basic_stringIcSt11char_traitsIcESaIcEEESt4pairIKS5_MN11MyFtpServer15Command_HandlerEFvRKNS8_9cmd_info_EEESaISF_ENSt8__detail10_Select1stESt8equal_toIS5_ESt4hashIS5_ENSH_18_Mod_range_hashingENSH_20_Default_ranged_hashENSH_20_Prime_rehash_policyENSH_17_Hashtable_traitsILb1ELb0ELb1EEEE13_M_rehash_auxEmSt17integral_constantIbLb1EE
FNDA:4,_ZNSt10_HashtableINSt7__cxx1112basic_stringIcSt11char_traitsIcESaIcEEESt4pairIKS5_MN11MyFtpServer15Command_HandlerEFvRKNS8_9cmd_info_EEESaISF_ENSt8__detail10_Select1stESt8equal_toIS5_ESt4hashIS5_ENSH_18_Mod_range_hashingENSH_20_Default_ranged_hashENSH_20_Prime_rehash_policyENSH_17_Hashtable_traitsILb1ELb0ELb1EEEE13_M_rehash_auxEmSt17integral_constantIbLb1EE
DA:297,38
DA:298,38
DA:308,38
DA:421,6
DA:422,6
DA:432,4
DA:434,4
DA:436,0
DA:437,0
DA:440,4
DA:444,6
DA:446,6
DA:447,2
DA:449,4
DA:453,6
DA:454,6
DA:462,6
DA:463,6
DA:484,2
DA:487,4
DA:488,6
DA:489,2
DA:569,2
DA:575,2
DA:576,2
DA:629,4
DA:630,4
DA:790,42
DA:791,42
DA:794,46
DA:795,46
DA:807,42
DA:810,42
DA:811,42
DA:812,2
DA:813,40
DA:1120,2
DA:1124,2
DA:1126,2
DA:1127,2
DA:1129,0
DA:1130,0
DA:1132,2
DA:1139,2
DA:1145,2
DA:1147,40
DA:1148,38
DA:1149,2
DA:1528,2
DA:1532,2
DA:1533,2
DA:1534,2
DA:1588,4
DA:1593,4
DA:1594,4
DA:1595,4
DA:1827,42
DA:1833,42
DA:1834,42
DA:1835,24
DA:1837,18
DA:1838,10
DA:1840,28
DA:1841,2
DA:1843,26
DA:1844,16
DA:1845,10
DA:1848,16
DA:1886,38
DA:1890,38
DA:1894,18
DA:1895,18
DA:1902,20
DA:1903,20
DA:1905,20
DA:1908,18
DA:1910,20
DA:1912,38
DA:2008,38
DA:2014,38
DA:2016,38
DA:2019,38
DA:2021,4
DA:2022,4
DA:2025,38
DA:2028,38
DA:2029,38
DA:2030,38
DA:2095,38
DA:2101,38
DA:2102,38
DA:2103,38
DA:2105,38
DA:2106,0
DA:2108,38
DA:2110,38
DA:2111,38
DA:2112,38
DA:2113,38
DA:2316,2
DA:2320,2
DA:2321,2
DA:2322,2
DA:2323,2
DA:2324,2
DA:2325,2
DA:2355,4
DA:2361,4
DA:2363,0
DA:2367,0
DA:2368,0
DA:2370,4
DA:2378,4
DA:2382,4
DA:2383,4
DA:2384,4
DA:2385,4
DA:2386,30
DA:2388,26
DA:2390,26
DA:2391,26
DA:2393,20
DA:2394,20
DA:2395,20
DA:2396,20
DA:2397,18
DA:2398,20
DA:2402,6
DA:2403,6
DA:2406,26
DA:2409,4
DA:2410,4
DA:2411,4
DA:2412,4
end_of_record
SF:/usr/include/c++/11/limits
FN:1068,_ZNSt14numeric_limitsIiE3maxEv
FNDA:0,_ZNSt14numeric_limitsIiE3maxEv
DA:1068,0
end_of_record
SF:/usr/include/c++/11/bits/stl_function.h
FN:369,_ZNKSt8equal_toINSt7__cxx1112basic_stringIcSt11char_traitsIcESaIcEEEEclERKS5_S8_
FNDA:224,_ZNKSt8equal_toINSt7__cxx1112basic_stringIcSt11char_traitsIcESaIcEEEEclERKS5_S8_
DA:369,224
DA:370,224
end_of_record
SF:/usr/include/c++/11/bits/functional_hash.h
FN:196,_ZNSt10_Hash_impl4hashEPKvmm
FNDA:284,_ZNSt10_Hash_impl4hashEPKvmm
DA:196,284
DA:198,284
end_of_record
SF:/usr/include/c++/11/bits/shared_ptr.h
FN:408,_ZNSt10shared_ptrIN11MyFtpServer9User_InfoEEC2ISaIS1_EJEEESt20_Sp_alloc_shared_tagIT_EDpOT0_
FNDA:52,_ZNSt10shared_ptrIN11MyFtpServer9User_InfoEEC2ISaIS1_EJEEESt20_Sp_alloc_shared_tagIT_EDpOT0_
FN:858,_ZSt15allocate_sharedIN11MyFtpServer9User_InfoESaIS1_EJEESt10shared_ptrIT_ERKT0_DpOT1_
FNDA:52,_ZSt15allocate_sharedIN11MyFtpServer9User_InfoESaIS1_EJEESt10shared_ptrIT_ERKT0_DpOT1_
FN:875,_ZSt11make_sharedIN11MyFtpServer9User_InfoEJEESt10shared_ptrIT_EDpOT0_
FNDA:52,_ZSt11make_sharedIN11MyFtpServer9User_InfoEJEESt10shared_ptrIT_EDpOT0_
DA:408,52
DA:409,52
DA:410,52
DA:858,52
DA:863,52
DA:875,52
DA:878,104
DA:879,104
end_of_record
SF:/usr/include/c++/11/bits/ptr_traits.h
FN:149,_ZNSt14pointer_traitsIPNSt8__detail10_Hash_nodeISt4pairIKNSt7__cxx1112basic_stringIcSt11char_traitsIcESaIcEEEMN11MyFtpServer15Command_HandlerEFvRKNSA_9cmd_info_EEELb1EEEE10pointer_toERSI_
FNDA:38,_ZNSt14pointer_traitsIPNSt8__detail10_Hash_nodeISt4pairIKNSt7__cxx1112basic_stringIcSt11char_traitsIcESaIcEEEMN11MyFtpServer15Command_HandlerEFvRKNSA_9cmd_info_EEELb1EEEE10pointer_toERSI_
FN:149,_ZNSt14pointer_traitsIPPNSt8__detail15_Hash_node_baseEE10pointer_toERS2_
FNDA:6,_ZNSt14pointer_traitsIPPNSt8__detail15_Hash_node_baseEE10pointer_toERS2_
FN:159,_ZSt12__to_addressINSt8__detail10_Hash_nodeISt4pairIKNSt7__cxx1112basic_stringIcSt11char_traitsIcESaIcEEEMN11MyFtpServer15Command_HandlerEFvRKNSA_9cmd_info_EEELb1EEEEPT_SK_
FNDA:38,_ZSt12__to_addressINSt8__detail10_Hash_nodeISt4pairIKNSt7__cxx1112basic_stringIcSt11char_traitsIcESaIcEEEMN11MyFtpServer15Command_HandlerEFvRKNSA_9cmd_info_EEELb1EEEEPT_SK_
FN:159,_ZSt12__to_addressISt23_Sp_counted_ptr_inplaceIN11MyFtpServer9User_InfoESaIS2_ELN9__gnu_cxx12_Lock_policyE2EEEPT_S8_
FNDA:52,_ZSt12__to_addressISt23_Sp_counted_ptr_inplaceIN11MyFtpServer9User_InfoESaIS2_ELN9__gnu_cxx12_Lock_policyE2EEEPT_S8_
FN:159,_ZSt12__to_addressIPNSt8__detail15_Hash_node_baseEEPT_S4_
FNDA:6,_ZSt12__to_addressIPNSt8__detail15_Hash_node_baseEEPT_S4_
DA:149,38
DA:150,38
DA:149,6
DA:150,6
DA:159,38
DA:162,38
DA:159,52
DA:162,52
DA:159,6
DA:162,6
end_of_record
SF:/usr/include/c++/11/typeinfo
FN:120,_ZNKSt9type_infoeqERKS_
FNDA:0,_ZNKSt9type_infoeqERKS_
DA:120,0
DA:122,0
DA:123,0
DA:124,0
end_of_record
SF:/usr/include/c++/11/bits/stl_iterator_base_funcs.h
FN:98,_ZSt10__distanceIPcENSt15iterator_traitsIT_E15difference_typeES2_S2_St26random_access_iterator_tag
FNDA:0,_ZSt10__distanceIPcENSt15iterator_traitsIT_E15difference_typeES2_S2_St26random_access_iterator_tag
FN:98,_ZSt10__distanceIPKcENSt15iterator_traitsIT_E15difference_typeES3_S3_St26random_access_iterator_tag
FNDA:736,_ZSt10__distanceIPKcENSt15iterator_traitsIT_E15difference_typeES3_S3_St26random_access_iterator_tag
FN:138,_ZSt8distanceIPcENSt15iterator_traitsIT_E15difference_typeES2_S2_
FNDA:0,_ZSt8distanceIPcENSt15iterator_traitsIT_E15difference_typeES2_S2_
FN:138,_ZSt8distanceIPKcENSt15iterator_traitsIT_E15difference_typeES3_S3_
FNDA:736,_ZSt8distanceIPKcENSt15iterator_traitsIT_E15difference_typeES3_S3_
DA:98,0
DA:104,0
DA:98,736
DA:104,736
DA:138,0
DA:141,0
DA:142,0
DA:138,736
DA:141,736
DA:142,1472
end_of_record
SF:/usr/include/ace/Condition_Attributes.h
FN:51,_ZN26ACE_Condition_Attributes_TI22ACE_System_Time_PolicyEC2Ei
FNDA:0,_ZN26ACE_Condition_Attributes_TI22ACE_System_Time_PolicyEC2Ei
FN:56,_ZN26ACE_Condition_Attributes_TI22ACE_System_Time_PolicyED2Ev
FNDA:0,_ZN26ACE_Condition_Attributes_TI22ACE_System_Time_PolicyED2Ev
DA:51,0
DA:52,0
DA:53,0
DA:56,0
end_of_record
SF:/usr/include/ace/Base_Thread_Adapter.h
FN:54,_ZN24ACE_OS_Thread_DescriptorD0Ev
FNDA:0,_ZN24ACE_OS_Thread_DescriptorD0Ev
FN:54,_ZN24ACE_OS_Thread_DescriptorD2Ev
FNDA:0,_ZN24ACE_OS_Thread_DescriptorD2Ev
DA:54,0
DA:54,0
end_of_record
SF:/usr/include/ace/Dynamic.inl
FN:18,_ZN11ACE_Dynamic10is_dynamicEv
FNDA:52,_ZN11ACE_Dynamic10is_dynamicEv
FN:25,_ZN11ACE_Dynamic5resetEv
FNDA:52,_ZN11ACE_Dynamic5resetEv
DA:18,52
DA:21,52
DA:25,52
DA:28,52
DA:29,52
end_of_record
SF:/usr/include/ace/Null_Mutex.h
FN:37,_ZN14ACE_Null_MutexC2EPKc
FNDA:52,_ZN14ACE_Null_MutexC2EPKc
FN:100,_ZN9ACE_GuardI14ACE_Null_MutexEC2ERS0_
FNDA:0,_ZN9ACE_GuardI14ACE_Null_MutexEC2ERS0_
FN:111,_ZN9ACE_GuardI14ACE_Null_MutexE6lockedEv
FNDA:0,_ZN9ACE_GuardI14ACE_Null_MutexE6lockedEv
DA:37,52
DA:38,52
DA:100,0
DA:111,0
end_of_record
TN:
SF:/usr/include/c++/11/iostream
end_of_record
SF:/home/hksong/hksong/prjs/myftpserver/include/task_manager.h
end_of_record
SF:/usr/include/ace/Truncate.h
FN:308,_ZN9ACE_Utils15Fast_ComparatorImmE12greater_thanEmm
FNDA:0,_ZN9ACE_Utils15Fast_ComparatorImmE12greater_thanEmm
FN:393,_ZN9ACE_Utils9TruncatorImiEclEm
FNDA:0,_ZN9ACE_Utils9TruncatorImiEclEm
FN:449,_ZN9ACE_Utils13truncate_castIimEET_T0_
FNDA:0,_ZN9ACE_Utils13truncate_castIimEET_T0_
DA:308,0
DA:313,0
DA:393,0
DA:396,0
DA:397,0
DA:398,0
DA:449,0
DA:459,0
end_of_record
SF:/usr/include/ace/Thread_Manager.inl
FN:72,_ZN26ACE_Thread_Descriptor_BaseD0Ev
FNDA:0,_ZN26ACE_Thread_Descriptor_BaseD0Ev
FN:72,_ZN26ACE_Thread_Descriptor_BaseD2Ev
FNDA:0,_ZN26ACE_Thread_Descriptor_BaseD2Ev
DA:72,0
DA:74,0
DA:72,0
DA:74,0
end_of_record
SF:/usr/include/ace/Numeric_Limits.h
FN:64,_ZN18ACE_Numeric_LimitsIiE3maxEv
FNDA:0,_ZN18ACE_Numeric_LimitsIiE3maxEv
DA:64,0
end_of_record
SF:/usr/include/ace/Thread_Mutex.inl
FN:54,_ZN16ACE_Thread_Mutex7acquireEv
FNDA:0,_ZN16ACE_Thread_Mutex7acquireEv
FN:82,_ZN16ACE_Thread_Mutex7releaseEv
FNDA:0,_ZN16ACE_Thread_Mutex7releaseEv
DA:54,0
DA:57,0
DA:82,0
DA:85,0
end_of_record
SF:/usr/include/ace/OS_NS_Thread.inl
FN:123,_ZN6ACE_OS16condattr_destroyER18pthread_condattr_t
FNDA:54,_ZN6ACE_OS16condattr_destroyER18pthread_condattr_t
FN:139,_ZN6ACE_OS13condattr_initER18pthread_condattr_ti
FNDA:54,_ZN6ACE_OS13condattr_initER18pthread_condattr_ti
FN:3687,_ZN6ACE_OS17thread_mutex_lockEP15pthread_mutex_t
FNDA:0,_ZN6ACE_OS17thread_mutex_lockEP15pthread_mutex_t
FN:3768,_ZN6ACE_OS19thread_mutex_unlockEP15pthread_mutex_t
FNDA:0,_ZN6ACE_OS19thread_mutex_unlockEP15pthread_mutex_t
DA:123,54
DA:127,54
DA:131,54
DA:139,54
DA:144,54
DA:154,54
DA:155,54
DA:157,54
DA:164,54
DA:168,0
DA:171,54
DA:3687,0
DA:3695,0
DA:3768,0
DA:3776,0
end_of_record
SF:/usr/include/ace/Message_Block.inl
FN:210,_ZNK17ACE_Message_Block12msg_priorityEv
FNDA:0,_ZNK17ACE_Message_Block12msg_priorityEv
FN:438,_ZN17ACE_Message_Block4nextEPS_
FNDA:0,_ZN17ACE_Message_Block4nextEPS_
FN:445,_ZNK17ACE_Message_Block4nextEv
FNDA:0,_ZNK17ACE_Message_Block4nextEv
FN:452,_ZN17ACE_Message_Block4prevEPS_
FNDA:0,_ZN17ACE_Message_Block4prevEPS_
FN:459,_ZNK17ACE_Message_Block4prevEv
FNDA:0,_ZNK17ACE_Message_Block4prevEv
DA:210,0
DA:213,0
DA:438,0
DA:441,0
DA:442,0
DA:445,0
DA:448,0
DA:452,0
DA:455,0
DA:456,0
DA:459,0
DA:462,0
end_of_record
SF:/usr/include/ace/Condition_Attributes.inl
FN:5,_ZN24ACE_Condition_AttributesC2Ei
FNDA:54,_ZN24ACE_Condition_AttributesC2Ei
FN:11,_ZN24ACE_Condition_AttributesD2Ev
FNDA:54,_ZN24ACE_Condition_AttributesD2Ev
DA:5,54
DA:7,54
DA:8,54
DA:11,54
DA:13,54
DA:14,54
end_of_record
SF:/usr/include/ace/Guard_T.inl
FN:9,_ZN9ACE_GuardI16ACE_Thread_MutexE7acquireEv
FNDA:0,_ZN9ACE_GuardI16ACE_Thread_MutexE7acquireEv
FN:21,_ZN9ACE_GuardI16ACE_Thread_MutexE7releaseEv
FNDA:0,_ZN9ACE_GuardI16ACE_Thread_MutexE7releaseEv
FN:33,_ZN9ACE_GuardI16ACE_Thread_MutexEC2ERS0_
FNDA:0,_ZN9ACE_GuardI16ACE_Thread_MutexEC2ERS0_
FN:62,_ZN9ACE_GuardI16ACE_Thread_MutexED2Ev
FNDA:0,_ZN9ACE_GuardI16ACE_Thread_MutexED2Ev
FN:68,_ZNK9ACE_GuardI16ACE_Thread_MutexE6lockedEv
FNDA:0,_ZNK9ACE_GuardI16ACE_Thread_MutexE6lockedEv
DA:9,0
DA:11,0
DA:21,0
DA:23,0
DA:24,0
DA:27,0
DA:28,0
DA:33,0
DA:34,0
DA:35,0
DA:37,0
DA:38,0
DA:62,0
DA:64,0
DA:65,0
DA:68,0
DA:70,0
end_of_record
SF:/usr/include/ace/Log_Category.inl
FN:51,_ZN20ACE_Log_Category_TSS20log_priority_enabledE16ACE_Log_Priority
FNDA:0,_ZN20ACE_Log_Category_TSS20log_priority_enabledE16ACE_Log_Priority
FN:70,_ZN20ACE_Log_Category_TSS15conditional_setEPKciii
FNDA:0,_ZN20ACE_Log_Category_TSS15conditional_setEPKciii
FN:80,_ZN20ACE_Log_Category_TSS3logE16ACE_Log_PriorityPKcz
FNDA:0,_ZN20ACE_Log_Category_TSS3logE16ACE_Log_PriorityPKcz
FN:132,_ZN20ACE_Log_Category_TSS3logEPKc16ACE_Log_PriorityP13__va_list_tag
FNDA:0,_ZN20ACE_Log_Category_TSS3logEPKc16ACE_Log_PriorityP13__va_list_tag
FN:161,_ZNK16ACE_Log_Category13priority_maskEv
FNDA:0,_ZNK16ACE_Log_Category13priority_maskEv
DA:51,0
DA:53,0
DA:70,0
DA:75,0
DA:76,0
DA:80,0
DA:85,0
DA:87,0
DA:90,0
DA:92,0
DA:132,0
DA:136,0
DA:137,0
DA:138,0
DA:161,0
DA:163,0
end_of_record
SF:/usr/include/ace/Message_Queue.inl
FN:5,_ZN22ACE_Message_Queue_BaseC2Ev
FNDA:54,_ZN22ACE_Message_Queue_BaseC2Ev
DA:5,54
DA:7,54
end_of_record
SF:/usr/include/ace/Condition_Attributes.h
FN:51,_ZN26ACE_Condition_Attributes_TI22ACE_System_Time_PolicyEC2Ei
FNDA:54,_ZN26ACE_Condition_Attributes_TI22ACE_System_Time_PolicyEC2Ei
FN:56,_ZN26ACE_Condition_Attributes_TI22ACE_System_Time_PolicyED2Ev
FNDA:54,_ZN26ACE_Condition_Attributes_TI22ACE_System_Time_PolicyED2Ev
DA:51,54
DA:52,54
DA:53,54
DA:56,54
end_of_record
SF:/usr/include/ace/Base_Thread_Adapter.h
FN:54,_ZN24ACE_OS_Thread_DescriptorD0Ev
FNDA:0,_ZN24ACE_OS_Thread_DescriptorD0Ev
FN:54,_ZN24ACE_OS_Thread_DescriptorD2Ev
FNDA:0,_ZN24ACE_OS_Thread_DescriptorD2Ev
DA:54,0
DA:54,0
end_of_record
SF:/home/hksong/hksong/prjs/myftpserver/include/task_worker.h
end_of_record
SF:/home/hksong/hksong/prjs/myftpserver/src/task_manager.cpp
FN:12,_ZN11MyFtpServer12Task_Manager3svcEv
FNDA:0,_ZN11MyFtpServer12Task_Manager3svcEv
DA:12,0
DA:14,0
DA:16,0
DA:20,0
DA:21,0
DA:22,0
DA:23,0
DA:25,0
DA:26,0
DA:29,0
end_of_record
SF:/usr/include/c++/11/limits
FN:1068,_ZNSt14numeric_limitsIiE3maxEv
FNDA:0,_ZNSt14numeric_limitsIiE3maxEv
DA:1068,0
end_of_record
SF:/usr/include/ace/Task_T.inl
FN:16,_ZN8ACE_TaskI12ACE_MT_SYNCH22ACE_System_Time_PolicyE4getqERP17ACE_Message_BlockP14ACE_Time_Value
FNDA:0,_ZN8ACE_TaskI12ACE_MT_SYNCH22ACE_System_Time_PolicyE4getqERP17ACE_Message_BlockP14ACE_Time_Value
FN:23,_ZN8ACE_TaskI12ACE_MT_SYNCH22ACE_System_Time_PolicyE4putqEP17ACE_Message_BlockP14ACE_Time_Value
FNDA:0,_ZN8ACE_TaskI12ACE_MT_SYNCH22ACE_System_Time_PolicyE4putqEP17ACE_Message_BlockP14ACE_Time_Value
FN:59,_ZN8ACE_TaskI12ACE_MT_SYNCH22ACE_System_Time_PolicyE9msg_queueEv
FNDA:0,_ZN8ACE_TaskI12ACE_MT_SYNCH22ACE_System_Time_PolicyE9msg_queueEv
FN:91,_ZN8ACE_TaskI12ACE_MT_SYNCH22ACE_System_Time_PolicyE4nextEv
FNDA:0,_ZN8ACE_TaskI12ACE_MT_SYNCH22ACE_System_Time_PolicyE4nextEv
DA:16,0
DA:19,0
DA:23,0
DA:26,0
DA:59,0
DA:62,0
DA:91,0
DA:94,0
end_of_record
SF:/usr/include/ace/Task_T.cpp
FN:47,_ZN8ACE_TaskI12ACE_MT_SYNCH22ACE_System_Time_PolicyEC2EP18ACE_Thread_ManagerP17ACE_Message_QueueIS0_S1_E
FNDA:2,_ZN8ACE_TaskI12ACE_MT_SYNCH22ACE_System_Time_PolicyEC2EP18ACE_Thread_ManagerP17ACE_Message_QueueIS0_S1_E
FN:69,_ZN8ACE_TaskI12ACE_MT_SYNCH22ACE_System_Time_PolicyED0Ev
FNDA:0,_ZN8ACE_TaskI12ACE_MT_SYNCH22ACE_System_Time_PolicyED0Ev
FN:69,_ZN8ACE_TaskI12ACE_MT_SYNCH22ACE_System_Time_PolicyED2Ev
FNDA:0,_ZN8ACE_TaskI12ACE_MT_SYNCH22ACE_System_Time_PolicyED2Ev
DA:47,2
DA:50,2
DA:51,2
DA:52,2
DA:53,2
DA:57,2
DA:60,2
DA:62,2
DA:65,2
DA:66,0
DA:69,0
DA:78,0
DA:69,0
DA:72,0
DA:73,0
DA:77,0
DA:78,0
end_of_record
SF:/usr/include/ace/Message_Queue_T.cpp
FN:791,_ZN17ACE_Message_QueueI12ACE_MT_SYNCH22ACE_System_Time_PolicyE7dequeueERP17ACE_Message_BlockP14ACE_Time_Value
FNDA:0,_ZN17ACE_Message_QueueI12ACE_MT_SYNCH22ACE_System_Time_PolicyE7dequeueERP17ACE_Message_BlockP14ACE_Time_Value
FN:799,_ZN17ACE_Message_QueueI12ACE_MT_SYNCH22ACE_System_Time_PolicyE21notification_strategyEv
FNDA:0,_ZN17ACE_Message_QueueI12ACE_MT_SYNCH22ACE_System_Time_PolicyE21notification_strategyEv
FN:807,_ZN17ACE_Message_QueueI12ACE_MT_SYNCH22ACE_System_Time_PolicyE21notification_strategyEP25ACE_Notification_Strategy
FNDA:0,_ZN17ACE_Message_QueueI12ACE_MT_SYNCH22ACE_System_Time_PolicyE21notification_strategyEP25ACE_Notification_Strategy
FN:817,_ZN17ACE_Message_QueueI12ACE_MT_SYNCH22ACE_System_Time_PolicyE10is_empty_iEv
FNDA:0,_ZN17ACE_Message_QueueI12ACE_MT_SYNCH22ACE_System_Time_PolicyE10is_empty_iEv
FN:826,_ZN17ACE_Message_QueueI12ACE_MT_SYNCH22ACE_System_Time_PolicyE9is_full_iEv
FNDA:0,_ZN17ACE_Message_QueueI12ACE_MT_SYNCH22ACE_System_Time_PolicyE9is_full_iEv
FN:835,_ZN17ACE_Message_QueueI12ACE_MT_SYNCH22ACE_System_Time_PolicyE8is_emptyEv
FNDA:0,_ZN17ACE_Message_QueueI12ACE_MT_SYNCH22ACE_System_Time_PolicyE8is_emptyEv
FN:846,_ZN17ACE_Message_QueueI12ACE_MT_SYNCH22ACE_System_Time_PolicyE7is_fullEv
FNDA:0,_ZN17ACE_Message_QueueI12ACE_MT_SYNCH22ACE_System_Time_PolicyE7is_fullEv
FN:855,_ZN17ACE_Message_QueueI12ACE_MT_SYNCH22ACE_System_Time_PolicyE15high_water_markEv
FNDA:0,_ZN17ACE_Message_QueueI12ACE_MT_SYNCH22ACE_System_Time_PolicyE15high_water_markEv
FN:864,_ZN17ACE_Message_QueueI12ACE_MT_SYNCH22ACE_System_Time_PolicyE15high_water_markEm
FNDA:0,_ZN17ACE_Message_QueueI12ACE_MT_SYNCH22ACE_System_Time_PolicyE15high_water_markEm
FN:873,_ZN17ACE_Message_QueueI12ACE_MT_SYNCH22ACE_System_Time_PolicyE14low_water_markEv
FNDA:0,_ZN17ACE_Message_QueueI12ACE_MT_SYNCH22ACE_System_Time_PolicyE14low_water_markEv
FN:882,_ZN17ACE_Message_QueueI12ACE_MT_SYNCH22ACE_System_Time_PolicyE14low_water_markEm
FNDA:0,_ZN17ACE_Message_QueueI12ACE_MT_SYNCH22ACE_System_Time_PolicyE14low_water_markEm
FN:891,_ZN17ACE_Message_QueueI12ACE_MT_SYNCH22ACE_System_Time_PolicyE13message_bytesEv
FNDA:0,_ZN17ACE_Message_QueueI12ACE_MT_SYNCH22ACE_System_Time_PolicyE13message_bytesEv
FN:900,_ZN17ACE_Message_QueueI12ACE_MT_SYNCH22ACE_System_Time_PolicyE14message_lengthEv
FNDA:0,_ZN17ACE_Message_QueueI12ACE_MT_SYNCH22ACE_System_Time_PolicyE14message_lengthEv
FN:909,_ZN17ACE_Message_QueueI12ACE_MT_SYNCH22ACE_System_Time_PolicyE13message_countEv
FNDA:0,_ZN17ACE_Message_QueueI12ACE_MT_SYNCH22ACE_System_Time_PolicyE13message_countEv
FN:918,_ZN17ACE_Message_QueueI12ACE_MT_SYNCH22ACE_System_Time_PolicyE10deactivateEv
FNDA:0,_ZN17ACE_Message_QueueI12ACE_MT_SYNCH22ACE_System_Time_PolicyE10deactivateEv
FN:927,_ZN17ACE_Message_QueueI12ACE_MT_SYNCH22ACE_System_Time_PolicyE8activateEv
FNDA:0,_ZN17ACE_Message_QueueI12ACE_MT_SYNCH22ACE_System_Time_PolicyE8activateEv
FN:936,_ZN17ACE_Message_QueueI12ACE_MT_SYNCH22ACE_System_Time_PolicyE5pulseEv
FNDA:0,_ZN17ACE_Message_QueueI12ACE_MT_SYNCH22ACE_System_Time_PolicyE5pulseEv
FN:945,_ZN17ACE_Message_QueueI12ACE_MT_SYNCH22ACE_System_Time_PolicyE11deactivatedEv
FNDA:0,_ZN17ACE_Message_QueueI12ACE_MT_SYNCH22ACE_System_Time_PolicyE11deactivatedEv
FN:953,_ZN17ACE_Message_QueueI12ACE_MT_SYNCH22ACE_System_Time_PolicyE5stateEv
FNDA:0,_ZN17ACE_Message_QueueI12ACE_MT_SYNCH22ACE_System_Time_PolicyE5stateEv
FN:961,_ZN17ACE_Message_QueueI12ACE_MT_SYNCH22ACE_System_Time_PolicyE4lockEv
FNDA:0,_ZN17ACE_Message_QueueI12ACE_MT_SYNCH22ACE_System_Time_PolicyE4lockEv
FN:981,_ZNK17ACE_Message_QueueI12ACE_MT_SYNCH22ACE_System_Time_PolicyE4dumpEv
FNDA:0,_ZNK17ACE_Message_QueueI12ACE_MT_SYNCH22ACE_System_Time_PolicyE4dumpEv
FN:1025,_ZN17ACE_Message_QueueI12ACE_MT_SYNCH22ACE_System_Time_PolicyE13message_bytesEm
FNDA:0,_ZN17ACE_Message_QueueI12ACE_MT_SYNCH22ACE_System_Time_PolicyE13message_bytesEm
FN:1034,_ZN17ACE_Message_QueueI12ACE_MT_SYNCH22ACE_System_Time_PolicyE14message_lengthEm
FNDA:0,_ZN17ACE_Message_QueueI12ACE_MT_SYNCH22ACE_System_Time_PolicyE14message_lengthEm
FN:1043,_ZN17ACE_Message_QueueI12ACE_MT_SYNCH22ACE_System_Time_PolicyEC2EmmP25ACE_Notification_Strategy
FNDA:2,_ZN17ACE_Message_QueueI12ACE_MT_SYNCH22ACE_System_Time_PolicyEC2EmmP25ACE_Notification_Strategy
FN:1084,_ZN17ACE_Message_QueueI12ACE_MT_SYNCH22ACE_System_Time_PolicyED2Ev
FNDA:2,_ZN17ACE_Message_QueueI12ACE_MT_SYNCH22ACE_System_Time_PolicyED2Ev
FN:1084,_ZN17ACE_Message_QueueI12ACE_MT_SYNCH22ACE_System_Time_PolicyED0Ev
FNDA:2,_ZN17ACE_Message_QueueI12ACE_MT_SYNCH22ACE_System_Time_PolicyED0Ev
FN:1098,_ZN17ACE_Message_QueueI12ACE_MT_SYNCH22ACE_System_Time_PolicyE7flush_iEv
FNDA:0,_ZN17ACE_Message_QueueI12ACE_MT_SYNCH22ACE_System_Time_PolicyE7flush_iEv
FN:1141,_ZN17ACE_Message_QueueI12ACE_MT_SYNCH22ACE_System_Time_PolicyE4openEmmP25ACE_Notification_Strategy
FNDA:2,_ZN17ACE_Message_QueueI12ACE_MT_SYNCH22ACE_System_Time_PolicyE4openEmmP25ACE_Notification_Strategy
FN:1162,_ZN17ACE_Message_QueueI12ACE_MT_SYNCH22ACE_System_Time_PolicyE12deactivate_iEi
FNDA:0,_ZN17ACE_Message_QueueI12ACE_MT_SYNCH22ACE_System_Time_PolicyE12deactivate_iEi
FN:1183,_ZN17ACE_Message_QueueI12ACE_MT_SYNCH22ACE_System_Time_PolicyE10activate_iEv
FNDA:0,_ZN17ACE_Message_QueueI12ACE_MT_SYNCH22ACE_System_Time_PolicyE10activate_iEv
FN:1192,_ZN17ACE_Message_QueueI12ACE_MT_SYNCH22ACE_System_Time_PolicyE5flushEv
FNDA:0,_ZN17ACE_Message_QueueI12ACE_MT_SYNCH22ACE_System_Time_PolicyE5flushEv
FN:1204,_ZN17ACE_Message_QueueI12ACE_MT_SYNCH22ACE_System_Time_PolicyE5closeEv
FNDA:0,_ZN17ACE_Message_QueueI12ACE_MT_SYNCH22ACE_System_Time_PolicyE5closeEv
FN:1218,_ZN17ACE_Message_QueueI12ACE_MT_SYNCH22ACE_System_Time_PolicyE22signal_enqueue_waitersEv
FNDA:0,_ZN17ACE_Message_QueueI12ACE_MT_SYNCH22ACE_System_Time_PolicyE22signal_enqueue_waitersEv
FN:1226,_ZN17ACE_Message_QueueI12ACE_MT_SYNCH22ACE_System_Time_PolicyE22signal_dequeue_waitersEv
FNDA:0,_ZN17ACE_Message_QueueI12ACE_MT_SYNCH22ACE_System_Time_PolicyE22signal_dequeue_waitersEv
FN:1238,_ZN17ACE_Message_QueueI12ACE_MT_SYNCH22ACE_System_Time_PolicyE14enqueue_tail_iEP17ACE_Message_Block
FNDA:0,_ZN17ACE_Message_QueueI12ACE_MT_SYNCH22ACE_System_Time_PolicyE14enqueue_tail_iEP17ACE_Message_Block
FN:1289,_ZN17ACE_Message_QueueI12ACE_MT_SYNCH22ACE_System_Time_PolicyE14enqueue_head_iEP17ACE_Message_Block
FNDA:0,_ZN17ACE_Message_QueueI12ACE_MT_SYNCH22ACE_System_Time_PolicyE14enqueue_head_iEP17ACE_Message_Block
FN:1334,_ZN17ACE_Message_QueueI12ACE_MT_SYNCH22ACE_System_Time_PolicyE9enqueue_iEP17ACE_Message_Block
FNDA:0,_ZN17ACE_Message_QueueI12ACE_MT_SYNCH22ACE_System_Time_PolicyE9enqueue_iEP17ACE_Message_Block
FN:1405,_ZN17ACE_Message_QueueI12ACE_MT_SYNCH22ACE_System_Time_PolicyE18enqueue_deadline_iEP17ACE_Message_Block
FNDA:0,_ZN17ACE_Message_QueueI12ACE_MT_SYNCH22ACE_System_Time_PolicyE18enqueue_deadline_iEP17ACE_Message_Block
FN:1476,_ZN17ACE_Message_QueueI12ACE_MT_SYNCH22ACE_System_Time_PolicyE14dequeue_head_iERP17ACE_Message_Block
FNDA:0,_ZN17ACE_Message_QueueI12ACE_MT_SYNCH22ACE_System_Time_PolicyE14dequeue_head_iERP17ACE_Message_Block
FN:1527,_ZN17ACE_Message_QueueI12ACE_MT_SYNCH22ACE_System_Time_PolicyE14dequeue_prio_iERP17ACE_Message_Block
FNDA:0,_ZN17ACE_Message_QueueI12ACE_MT_SYNCH22ACE_System_Time_PolicyE14dequeue_prio_iERP17ACE_Message_Block
FN:1602,_ZN17ACE_Message_QueueI12ACE_MT_SYNCH22ACE_System_Time_PolicyE14dequeue_tail_iERP17ACE_Message_Block
FNDA:0,_ZN17ACE_Message_QueueI12ACE_MT_SYNCH22ACE_System_Time_PolicyE14dequeue_tail_iERP17ACE_Message_Block
FN:1651,_ZN17ACE_Message_QueueI12ACE_MT_SYNCH22ACE_System_Time_PolicyE18dequeue_deadline_iERP17ACE_Message_Block
FNDA:0,_ZN17ACE_Message_QueueI12ACE_MT_SYNCH22ACE_System_Time_PolicyE18dequeue_deadline_iERP17ACE_Message_Block
FN:1721,_ZN17ACE_Message_QueueI12ACE_MT_SYNCH22ACE_System_Time_PolicyE17peek_dequeue_headERP17ACE_Message_BlockP14ACE_Time_Value
FNDA:0,_ZN17ACE_Message_QueueI12ACE_MT_SYNCH22ACE_System_Time_PolicyE17peek_dequeue_headERP17ACE_Message_BlockP14ACE_Time_Value
FN:1742,_ZN17ACE_Message_QueueI12ACE_MT_SYNCH22ACE_System_Time_PolicyE18wait_not_full_condEP14ACE_Time_Value
FNDA:0,_ZN17ACE_Message_QueueI12ACE_MT_SYNCH22ACE_System_Time_PolicyE18wait_not_full_condEP14ACE_Time_Value
FN:1768,_ZN17ACE_Message_QueueI12ACE_MT_SYNCH22ACE_System_Time_PolicyE19wait_not_empty_condEP14ACE_Time_Value
FNDA:0,_ZN17ACE_Message_QueueI12ACE_MT_SYNCH22ACE_System_Time_PolicyE19wait_not_empty_condEP14ACE_Time_Value
FN:1797,_ZN17ACE_Message_QueueI12ACE_MT_SYNCH22ACE_System_Time_PolicyE12enqueue_headEP17ACE_Message_BlockP14ACE_Time_Value
FNDA:0,_ZN17ACE_Message_QueueI12ACE_MT_SYNCH22ACE_System_Time_PolicyE12enqueue_headEP17ACE_Message_BlockP14ACE_Time_Value
FN:1835,_ZN17ACE_Message_QueueI12ACE_MT_SYNCH22ACE_System_Time_PolicyE12enqueue_prioEP17ACE_Message_BlockP14ACE_Time_Value
FNDA:0,_ZN17ACE_Message_QueueI12ACE_MT_SYNCH22ACE_System_Time_PolicyE12enqueue_prioEP17ACE_Message_BlockP14ACE_Time_Value
FN:1873,_ZN17ACE_Message_QueueI12ACE_MT_SYNCH22ACE_System_Time_PolicyE16enqueue_deadlineEP17ACE_Message_BlockP14ACE_Time_Value
FNDA:0,_ZN17ACE_Message_QueueI12ACE_MT_SYNCH22ACE_System_Time_PolicyE16enqueue_deadlineEP17ACE_Message_BlockP14ACE_Time_Value
FN:1907,_ZN17ACE_Message_QueueI12ACE_MT_SYNCH22ACE_System_Time_PolicyE7enqueueEP17ACE_Message_BlockP14ACE_Time_Value
FNDA:0,_ZN17ACE_Message_QueueI12ACE_MT_SYNCH22ACE_System_Time_PolicyE7enqueueEP17ACE_Message_BlockP14ACE_Time_Value
FN:1918,_ZN17ACE_Message_QueueI12ACE_MT_SYNCH22ACE_System_Time_PolicyE12enqueue_tailEP17ACE_Message_BlockP14ACE_Time_Value
FNDA:0,_ZN17ACE_Message_QueueI12ACE_MT_SYNCH22ACE_System_Time_PolicyE12enqueue_tailEP17ACE_Message_BlockP14ACE_Time_Value
FN:1956,_ZN17ACE_Message_QueueI12ACE_MT_SYNCH22ACE_System_Time_PolicyE12dequeue_headERP17ACE_Message_BlockP14ACE_Time_Value
FNDA:0,_ZN17ACE_Message_QueueI12ACE_MT_SYNCH22ACE_System_Time_PolicyE12dequeue_headERP17ACE_Message_BlockP14ACE_Time_Value
FN:1979,_ZN17ACE_Message_QueueI12ACE_MT_SYNCH22ACE_System_Time_PolicyE12dequeue_prioERP17ACE_Message_BlockP14ACE_Time_Value
FNDA:0,_ZN17ACE_Message_QueueI12ACE_MT_SYNCH22ACE_System_Time_PolicyE12dequeue_prioERP17ACE_Message_BlockP14ACE_Time_Value
FN:2002,_ZN17ACE_Message_QueueI12ACE_MT_SYNCH22ACE_System_Time_PolicyE12dequeue_tailERP17ACE_Message_BlockP14ACE_Time_Value
FNDA:0,_ZN17ACE_Message_QueueI12ACE_MT_SYNCH22ACE_System_Time_PolicyE12dequeue_tailERP17ACE_Message_BlockP14ACE_Time_Value
FN:2025,_ZN17ACE_Message_QueueI12ACE_MT_SYNCH22ACE_System_Time_PolicyE16dequeue_deadlineERP17ACE_Message_BlockP14ACE_Time_Value
FNDA:0,_ZN17ACE_Message_QueueI12ACE_MT_SYNCH22ACE_System_Time_PolicyE16dequeue_deadlineERP17ACE_Message_BlockP14ACE_Time_Value
FN:2044,_ZN17ACE_Message_QueueI12ACE_MT_SYNCH22ACE_System_Time_PolicyE6notifyEv
FNDA:0,_ZN17ACE_Message_QueueI12ACE_MT_SYNCH22ACE_System_Time_PolicyE6notifyEv
DA:791,0
DA:795,0
DA:799,0
DA:803,0
DA:807,0
DA:811,0
DA:812,0
DA:817,0
DA:820,0
DA:826,0
DA:829,0
DA:835,0
DA:838,0
DA:840,0
DA:841,0
DA:846,0
DA:849,0
DA:851,0
DA:852,0
DA:855,0
DA:858,0
DA:860,0
DA:861,0
DA:864,0
DA:867,0
DA:869,0
DA:870,0
DA:873,0
DA:876,0
DA:878,0
DA:879,0
DA:882,0
DA:885,0
DA:887,0
DA:888,0
DA:891,0
DA:894,0
DA:896,0
DA:897,0
DA:900,0
DA:903,0
DA:905,0
DA:906,0
DA:909,0
DA:912,0
DA:914,0
DA:915,0
DA:918,0
DA:921,0
DA:923,0
DA:924,0
DA:927,0
DA:930,0
DA:932,0
DA:933,0
DA:936,0
DA:939,0
DA:941,0
DA:942,0
DA:945,0
DA:949,0
DA:953,0
DA:957,0
DA:961,0
DA:963,0
DA:981,0
DA:1022,0
DA:1025,0
DA:1028,0
DA:1030,0
DA:1031,0
DA:1034,0
DA:1037,0
DA:1039,0
DA:1040,0
DA:1043,2
DA:1047,2
DA:1048,4
DA:1056,2
DA:1057,0
DA:1081,2
DA:1084,2
DA:1095,2
DA:1084,2
DA:1087,2
DA:1088,0
DA:1095,4
DA:1098,0
DA:1100,0
DA:1104,0
DA:1106,0
DA:1108,0
DA:1109,0
DA:1110,0
DA:1113,0
DA:1114,0
DA:1115,0
DA:1117,0
DA:1118,0
DA:1122,0
DA:1133,0
DA:1141,2
DA:1146,2
DA:1147,2
DA:1148,2
DA:1149,2
DA:1150,2
DA:1151,2
DA:1152,2
DA:1153,2
DA:1154,2
DA:1155,2
DA:1162,0
DA:1165,0
DA:1167,0
DA:1170,0
DA:1171,0
DA:1173,0
DA:1174,0
DA:1176,0
DA:1179,0
DA:1183,0
DA:1186,0
DA:1187,0
DA:1188,0
DA:1192,0
DA:1195,0
DA:1198,0
DA:1199,0
DA:1204,0
DA:1207,0
DA:1211,0
DA:1214,0
DA:1215,0
DA:1218,0
DA:1220,0
DA:1221,0
DA:1222,0
DA:1226,0
DA:1229,0
DA:1230,0
DA:1231,0
DA:1238,0
DA:1242,0
DA:1243,0
DA:1250,0
DA:1251,0
DA:1252,0
DA:1253,0
DA:1254,0
DA:1256,0
DA:1257,0
DA:1258,0
DA:1259,0
DA:1260,0
DA:1264,0
DA:1266,0
DA:1267,0
DA:1269,0
DA:1275,0
DA:1276,0
DA:1277,0
DA:1280,0
DA:1281,0
DA:1283,0
DA:1289,0
DA:1293,0
DA:1294,0
DA:1301,0
DA:1302,0
DA:1303,0
DA:1304,0
DA:1305,0
DA:1307,0
DA:1308,0
DA:1309,0
DA:1310,0
DA:1311,0
DA:1314,0
DA:1315,0
DA:1317,0
DA:1318,0
DA:1320,0
DA:1322,0
DA:1324,0
DA:1325,0
DA:1327,0
DA:1334,0
DA:1338,0
DA:1339,0
DA:1345,0
DA:1347,0
DA:1350,0
DA:1353,0
DA:1359,0
DA:1360,0
DA:1361,0
DA:1362,0
DA:1365,0
DA:1367,0
DA:1371,0
DA:1372,0
DA:1376,0
DA:1383,0
DA:1384,0
DA:1385,0
DA:1386,0
DA:1391,0
DA:1392,0
DA:1393,0
DA:1395,0
DA:1396,0
DA:1398,0
DA:1405,0
DA:1467,0
DA:1476,0
DA:1478,0
DA:1479,0
DA:1483,0
DA:1484,0
DA:1486,0
DA:1487,0
DA:1490,0
DA:1492,0
DA:1493,0
DA:1494,0
DA:1497,0
DA:1498,0
DA:1499,0
DA:1501,0
DA:1502,0
DA:1505,0
DA:1506,0
DA:1514,0
DA:1515,0
DA:1516,0
DA:1518,0
DA:1527,0
DA:1531,0
DA:1532,0
DA:1536,0
DA:1537,0
DA:1539,0
DA:1540,0
DA:1541,0
DA:1545,0
DA:1547,0
DA:1548,0
DA:1554,0
DA:1555,0
DA:1559,0
DA:1560,0
DA:1562,0
DA:1564,0
DA:1565,0
DA:1567,0
DA:1570,0
DA:1572,0
DA:1573,0
DA:1574,0
DA:1577,0
DA:1578,0
DA:1579,0
DA:1581,0
DA:1582,0
DA:1585,0
DA:1586,0
DA:1590,0
DA:1591,0
DA:1592,0
DA:1594,0
DA:1602,0
DA:1604,0
DA:1605,0
DA:1609,0
DA:1610,0
DA:1612,0
DA:1613,0
DA:1617,0
DA:1618,0
DA:1621,0
DA:1622,0
DA:1623,0
DA:1626,0
DA:1627,0
DA:1628,0
DA:1630,0
DA:1631,0
DA:1634,0
DA:1635,0
DA:1639,0
DA:1640,0
DA:1641,0
DA:1643,0
DA:1651,0
DA:1714,0
DA:1721,0
DA:1725,0
DA:1727,0
DA:1729,0
DA:1730,0
DA:1734,0
DA:1735,0
DA:1737,0
DA:1738,0
DA:1739,0
DA:1742,0
DA:1744,0
DA:1748,0
DA:1750,0
DA:1752,0
DA:1753,0
DA:1754,0
DA:1755,0
DA:1757,0
DA:1759,0
DA:1760,0
DA:1761,0
DA:1764,0
DA:1768,0
DA:1770,0
DA:1774,0
DA:1776,0
DA:1778,0
DA:1779,0
DA:1780,0
DA:1781,0
DA:1783,0
DA:1785,0
DA:1786,0
DA:1787,0
DA:1790,0
DA:1797,0
DA:1801,0
DA:1802,0
DA:1804,0
DA:1806,0
DA:1808,0
DA:1809,0
DA:1812,0
DA:1813,0
DA:1815,0
DA:1816,0
DA:1817,0
DA:1822,0
DA:1823,0
DA:1825,0
DA:1826,0
DA:1827,0
DA:1835,0
DA:1839,0
DA:1840,0
DA:1842,0
DA:1844,0
DA:1846,0
DA:1847,0
DA:1850,0
DA:1851,0
DA:1853,0
DA:1855,0
DA:1856,0
DA:1861,0
DA:1862,0
DA:1863,0
DA:1864,0
DA:1865,0
DA:1873,0
DA:1877,0
DA:1878,0
DA:1880,0
DA:1882,0
DA:1884,0
DA:1885,0
DA:1888,0
DA:1889,0
DA:1891,0
DA:1893,0
DA:1894,0
DA:1899,0
DA:1900,0
DA:1901,0
DA:1902,0
DA:1903,0
DA:1907,0
DA:1911,0
DA:1918,0
DA:1922,0
DA:1923,0
DA:1925,0
DA:1927,0
DA:1929,0
DA:1930,0
DA:1933,0
DA:1934,0
DA:1936,0
DA:1938,0
DA:1939,0
DA:1944,0
DA:1945,0
DA:1946,0
DA:1947,0
DA:1948,0
DA:1956,0
DA:1960,0
DA:1962,0
DA:1964,0
DA:1965,0
DA:1968,0
DA:1969,0
DA:1971,0
DA:1972,0
DA:1979,0
DA:1983,0
DA:1985,0
DA:1987,0
DA:1988,0
DA:1991,0
DA:1992,0
DA:1994,0
DA:1995,0
DA:2002,0
DA:2006,0
DA:2008,0
DA:2010,0
DA:2011,0
DA:2014,0
DA:2015,0
DA:2017,0
DA:2018,0
DA:2025,0
DA:2029,0
DA:2031,0
DA:2033,0
DA:2034,0
DA:2037,0
DA:2038,0
DA:2040,0
DA:2041,0
DA:2044,0
DA:2049,0
DA:2050,0
DA:2052,0
end_of_record
TN:
SF:/usr/include/c++/11/iostream
end_of_record
SF:/usr/include/ace/OS_NS_unistd.inl
FN:968,_ZN6ACE_OS5sleepEj
FNDA:0,_ZN6ACE_OS5sleepEj
DA:968,0
DA:974,0
DA:975,0
DA:977,0
end_of_record
SF:/usr/include/ace/Thread_Manager.inl
FN:72,_ZN26ACE_Thread_Descriptor_BaseD0Ev
FNDA:0,_ZN26ACE_Thread_Descriptor_BaseD0Ev
FN:72,_ZN26ACE_Thread_Descriptor_BaseD2Ev
FNDA:0,_ZN26ACE_Thread_Descriptor_BaseD2Ev
DA:72,0
DA:74,0
DA:72,0
DA:74,0
end_of_record
SF:/usr/include/ace/Message_Block.inl
FN:5,_ZNK17ACE_Message_Block10data_blockEv
FNDA:0,_ZNK17ACE_Message_Block10data_blockEv
FN:49,_ZNK14ACE_Data_Block4baseEv
FNDA:0,_ZNK14ACE_Data_Block4baseEv
FN:282,_ZNK17ACE_Message_Block4baseEv
FNDA:0,_ZNK17ACE_Message_Block4baseEv
FN:300,_ZNK17ACE_Message_Block6rd_ptrEv
FNDA:0,_ZNK17ACE_Message_Block6rd_ptrEv
DA:5,0
DA:8,0
DA:49,0
DA:52,0
DA:282,0
DA:285,0
DA:300,0
DA:303,0
end_of_record
SF:/usr/include/ace/Base_Thread_Adapter.h
FN:54,_ZN24ACE_OS_Thread_DescriptorD0Ev
FNDA:0,_ZN24ACE_OS_Thread_DescriptorD0Ev
FN:54,_ZN24ACE_OS_Thread_DescriptorD2Ev
FNDA:0,_ZN24ACE_OS_Thread_DescriptorD2Ev
DA:54,0
DA:54,0
end_of_record
SF:/home/hksong/hksong/prjs/myftpserver/include/task_worker.h
end_of_record
SF:/usr/include/ace/Task_T.cpp
FN:69,_ZN8ACE_TaskI12ACE_MT_SYNCH22ACE_System_Time_PolicyED0Ev
FNDA:0,_ZN8ACE_TaskI12ACE_MT_SYNCH22ACE_System_Time_PolicyED0Ev
FN:69,_ZN8ACE_TaskI12ACE_MT_SYNCH22ACE_System_Time_PolicyED2Ev
FNDA:2,_ZN8ACE_TaskI12ACE_MT_SYNCH22ACE_System_Time_PolicyED2Ev
DA:69,0
DA:78,0
DA:69,2
DA:72,2
DA:73,2
DA:77,2
DA:78,4
end_of_record
SF:/home/hksong/hksong/prjs/myftpserver/src/task_worker.cpp
FN:11,_ZN11MyFtpServer11Task_Worker3svcEv
FNDA:0,_ZN11MyFtpServer11Task_Worker3svcEv
FN:21,_ZN11MyFtpServer11Task_Worker12process_taskEP17ACE_Message_Block
FNDA:0,_ZN11MyFtpServer11Task_Worker12process_taskEP17ACE_Message_Block
DA:11,0
DA:13,0
DA:14,0
DA:15,0
DA:17,0
DA:18,0
DA:21,0
DA:28,0
DA:30,0
DA:31,0
DA:32,0
end_of_record
SF:/usr/include/ace/Task_T.inl
FN:16,_ZN8ACE_TaskI12ACE_MT_SYNCH22ACE_System_Time_PolicyE4getqERP17ACE_Message_BlockP14ACE_Time_Value
FNDA:0,_ZN8ACE_TaskI12ACE_MT_SYNCH22ACE_System_Time_PolicyE4getqERP17ACE_Message_BlockP14ACE_Time_Value
FN:91,_ZN8ACE_TaskI12ACE_MT_SYNCH22ACE_System_Time_PolicyE4nextEv
FNDA:0,_ZN8ACE_TaskI12ACE_MT_SYNCH22ACE_System_Time_PolicyE4nextEv
DA:16,0
DA:19,0
DA:91,0
DA:94,0
end_of_record
TN:
SF:/usr/include/gtest/internal/gtest-port.h
FN:977,_ZN7testing8internal8GTestLog9GetStreamEv
FNDA:0,_ZN7testing8internal8GTestLog9GetStreamEv
DA:977,0
end_of_record
SF:/usr/include/c++/11/ext/new_allocator.h
FN:79,_ZN9__gnu_cxx13new_allocatorIcEC2Ev
FNDA:0,_ZN9__gnu_cxx13new_allocatorIcEC2Ev
FN:82,_ZN9__gnu_cxx13new_allocatorIcEC2ERKS1_
FNDA:0,_ZN9__gnu_cxx13new_allocatorIcEC2ERKS1_
FN:89,_ZN9__gnu_cxx13new_allocatorIcED2Ev
FNDA:0,_ZN9__gnu_cxx13new_allocatorIcED2Ev
DA:79,0
DA:82,0
DA:89,0
end_of_record
SF:/usr/include/gtest/gtest-printers.h
FN:212,_ZN7testing8internal52internal_stream_operator_without_lexical_name_lookup13StreamPrinter10PrintValueIivRSoEEvRKT_PSo
FNDA:0,_ZN7testing8internal52internal_stream_operator_without_lexical_name_lookup13StreamPrinter10PrintValueIivRSoEEvRKT_PSo
FN:306,_ZN7testing8internal17PrintWithFallbackIiEEvRKT_PSo
FNDA:0,_ZN7testing8internal17PrintWithFallbackIiEEvRKT_PSo
FN:333,_ZN7testing8internal19FormatForComparisonIiiE6FormatB5cxx11ERKi
FNDA:0,_ZN7testing8internal19FormatForComparisonIiiE6FormatB5cxx11ERKi
FN:413,_ZN7testing8internal33FormatForComparisonFailureMessageIiiEENSt7__cxx1112basic_stringIcSt11char_traitsIcESaIcEEERKT_RKT0_
FNDA:0,_ZN7testing8internal33FormatForComparisonFailureMessageIiiEENSt7__cxx1112basic_stringIcSt11char_traitsIcESaIcEEERKT_RKT0_
FN:440,_ZN7testing8internal7PrintToIiEEvRKT_PSo
FNDA:0,_ZN7testing8internal7PrintToIiEEvRKT_PSo
FN:682,_ZN7testing8internal16UniversalPrinterIiE5PrintERKiPSo
FNDA:0,_ZN7testing8internal16UniversalPrinterIiE5PrintERKiPSo
FN:864,_ZN7testing8internal21UniversalTersePrinterIiE5PrintERKiPSo
FNDA:0,_ZN7testing8internal21UniversalTersePrinterIiE5PrintERKiPSo
FN:976,_ZN7testing8internal14UniversalPrintIiEEvRKT_PSo
FNDA:0,_ZN7testing8internal14UniversalPrintIiEEvRKT_PSo
FN:1016,_ZN7testing13PrintToStringIiEENSt7__cxx1112basic_stringIcSt11char_traitsIcESaIcEEERKT_
FNDA:0,_ZN7testing13PrintToStringIiEENSt7__cxx1112basic_stringIcSt11char_traitsIcESaIcEEERKT_
DA:212,0
DA:215,0
DA:216,0
DA:306,0
DA:312,0
DA:313,0
DA:333,0
DA:334,0
DA:413,0
DA:415,0
DA:440,0
DA:441,0
DA:442,0
DA:682,0
DA:691,0
DA:692,0
DA:864,0
DA:865,0
DA:866,0
DA:976,0
DA:980,0
DA:981,0
DA:1016,0
DA:1017,0
DA:1018,0
DA:1019,0
DA:1020,0
end_of_record
SF:/usr/include/gtest/internal/gtest-internal.h
FN:435,_ZN7testing8internal9GetTypeIdI14User_Info_TestEEPKvv
FNDA:3,_ZN7testing8internal9GetTypeIdI14User_Info_TestEEPKvv
FN:454,_ZN7testing8internal15TestFactoryBaseD0Ev
FNDA:0,_ZN7testing8internal15TestFactoryBaseD0Ev
FN:454,_ZN7testing8internal15TestFactoryBaseD2Ev
FNDA:32,_ZN7testing8internal15TestFactoryBaseD2Ev
FN:461,_ZN7testing8internal15TestFactoryBaseC2Ev
FNDA:32,_ZN7testing8internal15TestFactoryBaseC2Ev
FN:472,_ZN7testing8internal15TestFactoryImplI35User_Info_Test_check_user_test_TestE10CreateTestEv
FNDA:1,_ZN7testing8internal15TestFactoryImplI35User_Info_Test_check_user_test_TestE10CreateTestEv
FN:472,_ZN7testing8internal15TestFactoryImplI52User_Info_Test_check_user_test_no_such_username_TestE10CreateTestEv
FNDA:1,_ZN7testing8internal15TestFactoryImplI52User_Info_Test_check_user_test_no_such_username_TestE10CreateTestEv
FN:472,_ZN7testing8internal15TestFactoryImplI50User_Info_Test_check_user_test_password_wrong_TestE10CreateTestEv
FNDA:1,_ZN7testing8internal15TestFactoryImplI50User_Info_Test_check_user_test_password_wrong_TestE10CreateTestEv
FN:493,_ZN7testing8internal12CodeLocationC2ERKNSt7__cxx1112basic_stringIcSt11char_traitsIcESaIcEEEi
FNDA:32,_ZN7testing8internal12CodeLocationC2ERKNSt7__cxx1112basic_stringIcSt11char_traitsIcESaIcEEEi
FN:506,_ZN7testing8internal19GetNotDefaultOrNullEPFvvES2_
FNDA:128,_ZN7testing8internal19GetNotDefaultOrNullEPFvvES2_
FN:521,_ZN7testing8internal16SuiteApiResolverI14User_Info_TestE19GetSetUpCaseOrSuiteEPKci
FNDA:3,_ZN7testing8internal16SuiteApiResolverI14User_Info_TestE19GetSetUpCaseOrSuiteEPKci
FN:542,_ZN7testing8internal16SuiteApiResolverI14User_Info_TestE22GetTearDownCaseOrSuiteEPKci
FNDA:3,_ZN7testing8internal16SuiteApiResolverI14User_Info_TestE22GetTearDownCaseOrSuiteEPKci
DA:435,3
DA:440,3
DA:454,0
DA:454,32
DA:461,32
DA:472,1
DA:472,1
DA:472,1
DA:493,32
DA:494,32
DA:506,128
DA:508,128
DA:521,3
DA:525,3
DA:527,3
DA:529,3
DA:532,0
DA:534,3
DA:542,3
DA:546,3
DA:548,3
DA:550,3
DA:553,0
DA:555,3
end_of_record
SF:/usr/include/c++/11/bits/stl_iterator_base_types.h
FN:238,_ZSt19__iterator_categoryIPcENSt15iterator_traitsIT_E17iterator_categoryERKS2_
FNDA:0,_ZSt19__iterator_categoryIPcENSt15iterator_traitsIT_E17iterator_categoryERKS2_
FN:238,_ZSt19__iterator_categoryIPKcENSt15iterator_traitsIT_E17iterator_categoryERKS3_
FNDA:0,_ZSt19__iterator_categoryIPKcENSt15iterator_traitsIT_E17iterator_categoryERKS3_
DA:238,0
DA:239,0
DA:238,0
DA:239,0
end_of_record
SF:/usr/include/c++/11/bits/alloc_traits.h
FN:562,_ZNSt16allocator_traitsISaIcEE37select_on_container_copy_constructionERKS0_
FNDA:0,_ZNSt16allocator_traitsISaIcEE37select_on_container_copy_constructionERKS0_
DA:562,0
DA:563,0
end_of_record
SF:/home/hksong/hksong/prjs/myftpserver/src/unit_test/user_info_test.cpp
FN:18,_ZN14User_Info_TestC2Ev
FNDA:3,_ZN14User_Info_TestC2Ev
FN:23,_ZN14User_Info_Test5SetUpEv
FNDA:3,_ZN14User_Info_Test5SetUpEv
FN:28,_ZN14User_Info_Test8TearDownEv
FNDA:3,_ZN14User_Info_Test8TearDownEv
FN:34,_ZN35User_Info_Test_check_user_test_TestC2Ev
FNDA:1,_ZN35User_Info_Test_check_user_test_TestC2Ev
FN:34,_ZN35User_Info_Test_check_user_test_TestD0Ev
FNDA:1,_ZN35User_Info_Test_check_user_test_TestD0Ev
FN:34,_ZN35User_Info_Test_check_user_test_TestD2Ev
FNDA:1,_ZN35User_Info_Test_check_user_test_TestD2Ev
FN:34,_ZN35User_Info_Test_check_user_test_Test8TestBodyEv
FNDA:1,_ZN35User_Info_Test_check_user_test_Test8TestBodyEv
FN:43,_ZN52User_Info_Test_check_user_test_no_such_username_TestC2Ev
FNDA:1,_ZN52User_Info_Test_check_user_test_no_such_username_TestC2Ev
FN:43,_ZN52User_Info_Test_check_user_test_no_such_username_TestD0Ev
FNDA:1,_ZN52User_Info_Test_check_user_test_no_such_username_TestD0Ev
FN:43,_ZN52User_Info_Test_check_user_test_no_such_username_TestD2Ev
FNDA:1,_ZN52User_Info_Test_check_user_test_no_such_username_TestD2Ev
FN:43,_ZN52User_Info_Test_check_user_test_no_such_username_Test8TestBodyEv
FNDA:1,_ZN52User_Info_Test_check_user_test_no_such_username_Test8TestBodyEv
FN:52,_ZN50User_Info_Test_check_user_test_password_wrong_TestC2Ev
FNDA:1,_ZN50User_Info_Test_check_user_test_password_wrong_TestC2Ev
FN:52,_ZN50User_Info_Test_check_user_test_password_wrong_TestD0Ev
FNDA:1,_ZN50User_Info_Test_check_user_test_password_wrong_TestD0Ev
FN:52,_ZN50User_Info_Test_check_user_test_password_wrong_TestD2Ev
FNDA:1,_ZN50User_Info_Test_check_user_test_password_wrong_TestD2Ev
FN:52,_ZN50User_Info_Test_check_user_test_password_wrong_Test8TestBodyEv
FNDA:1,_ZN50User_Info_Test_check_user_test_password_wrong_Test8TestBodyEv
DA:18,3
DA:19,3
DA:20,3
DA:23,3
DA:26,3
DA:28,3
DA:30,3
DA:31,3
DA:34,1
DA:34,1
DA:34,1
DA:34,1
DA:35,1
DA:36,1
DA:37,1
DA:38,1
DA:39,1
DA:40,1
DA:41,1
DA:43,1
DA:43,1
DA:43,1
DA:43,1
DA:44,1
DA:45,1
DA:46,1
DA:47,1
DA:48,1
DA:49,1
DA:50,1
DA:52,1
DA:52,1
DA:52,1
DA:52,1
DA:53,1
DA:54,1
DA:55,1
DA:56,1
DA:57,1
DA:58,1
DA:59,1
end_of_record
SF:/usr/include/c++/11/bits/stl_iterator_base_funcs.h
FN:98,_ZSt10__distanceIPcENSt15iterator_traitsIT_E15difference_typeES2_S2_St26random_access_iterator_tag
FNDA:0,_ZSt10__distanceIPcENSt15iterator_traitsIT_E15difference_typeES2_S2_St26random_access_iterator_tag
FN:98,_ZSt10__distanceIPKcENSt15iterator_traitsIT_E15difference_typeES3_S3_St26random_access_iterator_tag
FNDA:0,_ZSt10__distanceIPKcENSt15iterator_traitsIT_E15difference_typeES3_S3_St26random_access_iterator_tag
FN:138,_ZSt8distanceIPcENSt15iterator_traitsIT_E15difference_typeES2_S2_
FNDA:0,_ZSt8distanceIPcENSt15iterator_traitsIT_E15difference_typeES2_S2_
FN:138,_ZSt8distanceIPKcENSt15iterator_traitsIT_E15difference_typeES3_S3_
FNDA:0,_ZSt8distanceIPKcENSt15iterator_traitsIT_E15difference_typeES3_S3_
DA:98,0
DA:104,0
DA:98,0
DA:104,0
DA:138,0
DA:141,0
DA:142,0
DA:138,0
DA:141,0
DA:142,0
end_of_record
SF:/usr/include/gtest/gtest-message.h
end_of_record
SF:/usr/include/c++/11/bits/char_traits.h
FN:106,_ZN9__gnu_cxx11char_traitsIcE2eqERKcS3_
FNDA:0,_ZN9__gnu_cxx11char_traitsIcE2eqERKcS3_
FN:167,_ZN9__gnu_cxx11char_traitsIcE6lengthEPKc
FNDA:0,_ZN9__gnu_cxx11char_traitsIcE6lengthEPKc
FN:393,_ZNSt11char_traitsIcE6lengthEPKc
FNDA:0,_ZNSt11char_traitsIcE6lengthEPKc
DA:106,0
DA:107,0
DA:167,0
DA:170,0
DA:171,0
DA:172,0
DA:173,0
DA:290,0
DA:393,0
DA:396,0
DA:397,0
DA:399,0
end_of_record
SF:/usr/include/c++/11/bits/basic_string.h
FN:251,_ZNSt7__cxx1112basic_stringIcSt11char_traitsIcESaIcEE16_M_construct_auxIPcEEvT_S7_St12__false_type
FNDA:0,_ZNSt7__cxx1112basic_stringIcSt11char_traitsIcESaIcEE16_M_construct_auxIPcEEvT_S7_St12__false_type
FN:271,_ZNSt7__cxx1112basic_stringIcSt11char_traitsIcESaIcEE12_M_constructIPcEEvT_S7_
FNDA:0,_ZNSt7__cxx1112basic_stringIcSt11char_traitsIcESaIcEE12_M_constructIPcEEvT_S7_
FN:533,_ZNSt7__cxx1112basic_stringIcSt11char_traitsIcESaIcEEC2IS3_EEPKcRKS3_
FNDA:0,_ZNSt7__cxx1112basic_stringIcSt11char_traitsIcESaIcEEC2IS3_EEPKcRKS3_
DA:251,0
DA:255,0
DA:256,0
DA:271,0
DA:274,0
DA:275,0
DA:533,0
DA:534,0
DA:536,0
DA:539,0
DA:540,0
end_of_record
SF:/usr/include/c++/11/bits/basic_string.tcc
FN:206,_ZNSt7__cxx1112basic_stringIcSt11char_traitsIcESaIcEE12_M_constructIPcEEvT_S7_St20forward_iterator_tag
FNDA:0,_ZNSt7__cxx1112basic_stringIcSt11char_traitsIcESaIcEE12_M_constructIPcEEvT_S7_St20forward_iterator_tag
FN:206,_ZNSt7__cxx1112basic_stringIcSt11char_traitsIcESaIcEE12_M_constructIPKcEEvT_S8_St20forward_iterator_tag
FNDA:0,_ZNSt7__cxx1112basic_stringIcSt11char_traitsIcESaIcEE12_M_constructIPKcEEvT_S8_St20forward_iterator_tag
DA:206,0
DA:211,0
DA:212,0
DA:215,0
DA:217,0
DA:219,0
DA:220,0
DA:225,0
DA:226,0
DA:228,0
DA:229,0
DA:232,0
DA:233,0
DA:206,0
DA:211,0
DA:212,0
DA:215,0
DA:217,0
DA:219,0
DA:220,0
DA:225,0
DA:226,0
DA:228,0
DA:229,0
DA:232,0
DA:233,0
end_of_record
SF:/usr/include/c++/11/iostream
end_of_record
SF:/usr/include/c++/11/bits/unique_ptr.h
FN:79,_ZNKSt14default_deleteINSt7__cxx1118basic_stringstreamIcSt11char_traitsIcESaIcEEEEclEPS5_
FNDA:0,_ZNKSt14default_deleteINSt7__cxx1118basic_stringstreamIcSt11char_traitsIcESaIcEEEEclEPS5_
FN:79,_ZNKSt14default_deleteIN11MyFtpServer9User_InfoEEclEPS1_
FNDA:3,_ZNKSt14default_deleteIN11MyFtpServer9User_InfoEEclEPS1_
FN:79,_ZNKSt14default_deleteINSt7__cxx1112basic_stringIcSt11char_traitsIcESaIcEEEEclEPS5_
FNDA:0,_ZNKSt14default_deleteINSt7__cxx1112basic_stringIcSt11char_traitsIcESaIcEEEEclEPS5_
FN:154,_ZNSt15__uniq_ptr_implIN11MyFtpServer9User_InfoESt14default_deleteIS1_EEC2Ev
FNDA:3,_ZNSt15__uniq_ptr_implIN11MyFtpServer9User_InfoESt14default_deleteIS1_EEC2Ev
FN:154,_ZNSt15__uniq_ptr_implINSt7__cxx1112basic_stringIcSt11char_traitsIcESaIcEEESt14default_deleteIS5_EEC2Ev
FNDA:32,_ZNSt15__uniq_ptr_implINSt7__cxx1112basic_stringIcSt11char_traitsIcESaIcEEESt14default_deleteIS5_EEC2Ev
FN:155,_ZNSt15__uniq_ptr_implIN11MyFtpServer9User_InfoESt14default_deleteIS1_EEC2EPS1_
FNDA:3,_ZNSt15__uniq_ptr_implIN11MyFtpServer9User_InfoESt14default_deleteIS1_EEC2EPS1_
FN:165,_ZNSt15__uniq_ptr_implIN11MyFtpServer9User_InfoESt14default_deleteIS1_EEaSEOS4_
FNDA:3,_ZNSt15__uniq_ptr_implIN11MyFtpServer9User_InfoESt14default_deleteIS1_EEaSEOS4_
FN:172,_ZNSt15__uniq_ptr_implINSt7__cxx1118basic_stringstreamIcSt11char_traitsIcESaIcEEESt14default_deleteIS5_EE6_M_ptrEv
FNDA:0,_ZNSt15__uniq_ptr_implINSt7__cxx1118basic_stringstreamIcSt11char_traitsIcESaIcEEESt14default_deleteIS5_EE6_M_ptrEv
FN:172,_ZNSt15__uniq_ptr_implINSt7__cxx1112basic_stringIcSt11char_traitsIcESaIcEEESt14default_deleteIS5_EE6_M_ptrEv
FNDA:45,_ZNSt15__uniq_ptr_implINSt7__cxx1112basic_stringIcSt11char_traitsIcESaIcEEESt14default_deleteIS5_EE6_M_ptrEv
FN:172,_ZNSt15__uniq_ptr_implIN11MyFtpServer9User_InfoESt14default_deleteIS1_EE6_M_ptrEv
FNDA:21,_ZNSt15__uniq_ptr_implIN11MyFtpServer9User_InfoESt14default_deleteIS1_EE6_M_ptrEv
FN:173,_ZNKSt15__uniq_ptr_implIN11MyFtpServer9User_InfoESt14default_deleteIS1_EE6_M_ptrEv
FNDA:9,_ZNKSt15__uniq_ptr_implIN11MyFtpServer9User_InfoESt14default_deleteIS1_EE6_M_ptrEv
FN:173,_ZNKSt15__uniq_ptr_implINSt7__cxx1112basic_stringIcSt11char_traitsIcESaIcEEESt14default_deleteIS5_EE6_M_ptrEv
FNDA:0,_ZNKSt15__uniq_ptr_implINSt7__cxx1112basic_stringIcSt11char_traitsIcESaIcEEESt14default_deleteIS5_EE6_M_ptrEv
FN:174,_ZNSt15__uniq_ptr_implINSt7__cxx1112basic_stringIcSt11char_traitsIcESaIcEEESt14default_deleteIS5_EE10_M_deleterEv
FNDA:0,_ZNSt15__uniq_ptr_implINSt7__cxx1112basic_stringIcSt11char_traitsIcESaIcEEESt14default_deleteIS5_EE10_M_deleterEv
FN:174,_ZNSt15__uniq_ptr_implIN11MyFtpServer9User_InfoESt14default_deleteIS1_EE10_M_deleterEv
FNDA:9,_ZNSt15__uniq_ptr_implIN11MyFtpServer9User_InfoESt14default_deleteIS1_EE10_M_deleterEv
FN:174,_ZNSt15__uniq_ptr_implINSt7__cxx1118basic_stringstreamIcSt11char_traitsIcESaIcEEESt14default_deleteIS5_EE10_M_deleterEv
FNDA:0,_ZNSt15__uniq_ptr_implINSt7__cxx1118basic_stringstreamIcSt11char_traitsIcESaIcEEESt14default_deleteIS5_EE10_M_deleterEv
FN:177,_ZNSt15__uniq_ptr_implIN11MyFtpServer9User_InfoESt14default_deleteIS1_EE5resetEPS1_
FNDA:3,_ZNSt15__uniq_ptr_implIN11MyFtpServer9User_InfoESt14default_deleteIS1_EE5resetEPS1_
FN:185,_ZNSt15__uniq_ptr_implIN11MyFtpServer9User_InfoESt14default_deleteIS1_EE7releaseEv
FNDA:3,_ZNSt15__uniq_ptr_implIN11MyFtpServer9User_InfoESt14default_deleteIS1_EE7releaseEv
FN:212,_ZNSt15__uniq_ptr_dataIN11MyFtpServer9User_InfoESt14default_deleteIS1_ELb1ELb1EEaSEOS4_
FNDA:3,_ZNSt15__uniq_ptr_dataIN11MyFtpServer9User_InfoESt14default_deleteIS1_ELb1ELb1EEaSEOS4_
FN:269,_ZNSt10unique_ptrIN11MyFtpServer9User_InfoESt14default_deleteIS1_EEC2IS3_vEEv
FNDA:3,_ZNSt10unique_ptrIN11MyFtpServer9User_InfoESt14default_deleteIS1_EEC2IS3_vEEv
FN:269,_ZNSt10unique_ptrINSt7__cxx1112basic_stringIcSt11char_traitsIcESaIcEEESt14default_deleteIS5_EEC2IS7_vEEv
FNDA:32,_ZNSt10unique_ptrINSt7__cxx1112basic_stringIcSt11char_traitsIcESaIcEEESt14default_deleteIS5_EEC2IS7_vEEv
FN:281,_ZNSt10unique_ptrIN11MyFtpServer9User_InfoESt14default_deleteIS1_EEC2IS3_vEEPS1_
FNDA:3,_ZNSt10unique_ptrIN11MyFtpServer9User_InfoESt14default_deleteIS1_EEC2IS3_vEEPS1_
FN:355,_ZNSt10unique_ptrIN11MyFtpServer9User_InfoESt14default_deleteIS1_EED2Ev
FNDA:6,_ZNSt10unique_ptrIN11MyFtpServer9User_InfoESt14default_deleteIS1_EED2Ev
FN:355,_ZNSt10unique_ptrINSt7__cxx1112basic_stringIcSt11char_traitsIcESaIcEEESt14default_deleteIS5_EED2Ev
FNDA:45,_ZNSt10unique_ptrINSt7__cxx1112basic_stringIcSt11char_traitsIcESaIcEEESt14default_deleteIS5_EED2Ev
FN:355,_ZNSt10unique_ptrINSt7__cxx1118basic_stringstreamIcSt11char_traitsIcESaIcEEESt14default_deleteIS5_EED2Ev
FNDA:0,_ZNSt10unique_ptrINSt7__cxx1118basic_stringstreamIcSt11char_traitsIcESaIcEEESt14default_deleteIS5_EED2Ev
FN:371,_ZNSt10unique_ptrIN11MyFtpServer9User_InfoESt14default_deleteIS1_EEaSEOS4_
FNDA:3,_ZNSt10unique_ptrIN11MyFtpServer9User_InfoESt14default_deleteIS1_EEaSEOS4_
FN:413,_ZNKSt10unique_ptrIN11MyFtpServer9User_InfoESt14default_deleteIS1_EEptEv
FNDA:9,_ZNKSt10unique_ptrIN11MyFtpServer9User_InfoESt14default_deleteIS1_EEptEv
FN:413,_ZNKSt10unique_ptrINSt7__cxx1112basic_stringIcSt11char_traitsIcESaIcEEESt14default_deleteIS5_EEptEv
FNDA:0,_ZNKSt10unique_ptrINSt7__cxx1112basic_stringIcSt11char_traitsIcESaIcEEESt14default_deleteIS5_EEptEv
FN:421,_ZNKSt10unique_ptrIN11MyFtpServer9User_InfoESt14default_deleteIS1_EE3getEv
FNDA:9,_ZNKSt10unique_ptrIN11MyFtpServer9User_InfoESt14default_deleteIS1_EE3getEv
FN:421,_ZNKSt10unique_ptrINSt7__cxx1112basic_stringIcSt11char_traitsIcESaIcEEESt14default_deleteIS5_EE3getEv
FNDA:0,_ZNKSt10unique_ptrINSt7__cxx1112basic_stringIcSt11char_traitsIcESaIcEEESt14default_deleteIS5_EE3getEv
FN:426,_ZNSt10unique_ptrIN11MyFtpServer9User_InfoESt14default_deleteIS1_EE11get_deleterEv
FNDA:3,_ZNSt10unique_ptrIN11MyFtpServer9User_InfoESt14default_deleteIS1_EE11get_deleterEv
FN:426,_ZNSt10unique_ptrINSt7__cxx1118basic_stringstreamIcSt11char_traitsIcESaIcEEESt14default_deleteIS5_EE11get_deleterEv
FNDA:0,_ZNSt10unique_ptrINSt7__cxx1118basic_stringstreamIcSt11char_traitsIcESaIcEEESt14default_deleteIS5_EE11get_deleterEv
FN:426,_ZNSt10unique_ptrINSt7__cxx1112basic_stringIcSt11char_traitsIcESaIcEEESt14default_deleteIS5_EE11get_deleterEv
FNDA:0,_ZNSt10unique_ptrINSt7__cxx1112basic_stringIcSt11char_traitsIcESaIcEEESt14default_deleteIS5_EE11get_deleterEv
DA:79,3
DA:85,3
DA:86,3
DA:79,0
DA:85,0
DA:86,0
DA:79,0
DA:85,0
DA:86,0
DA:154,32
DA:154,3
DA:155,3
DA:165,3
DA:167,3
DA:168,3
DA:169,3
DA:172,21
DA:172,45
DA:172,0
DA:173,9
DA:173,0
DA:174,0
DA:174,0
DA:174,9
DA:177,3
DA:179,3
DA:180,3
DA:181,3
DA:182,0
DA:183,3
DA:185,3
DA:187,3
DA:188,3
DA:189,3
DA:212,3
DA:269,32
DA:270,32
DA:271,32
DA:269,3
DA:270,3
DA:271,3
DA:281,3
DA:282,3
DA:283,3
DA:355,6
DA:359,6
DA:360,6
DA:361,3
DA:362,6
DA:363,6
DA:355,45
DA:359,45
DA:360,45
DA:361,0
DA:362,45
DA:363,45
DA:355,0
DA:359,0
DA:360,0
DA:361,0
DA:362,0
DA:363,0
DA:371,3
DA:413,9
DA:416,9
DA:413,0
DA:416,0
DA:421,9
DA:422,9
DA:421,0
DA:422,0
DA:426,3
DA:427,3
DA:426,0
DA:427,0
DA:426,0
DA:427,0
end_of_record
SF:/home/hksong/hksong/prjs/myftpserver/include/user_info.h
FN:30,_ZN11MyFtpServer9User_InfoD2Ev
FNDA:0,_ZN11MyFtpServer9User_InfoD2Ev
DA:30,0
end_of_record
SF:/usr/include/c++/11/tuple
FN:80,_ZNSt10_Head_baseILm1ESt14default_deleteIN11MyFtpServer9User_InfoEELb1EEC2Ev
FNDA:6,_ZNSt10_Head_baseILm1ESt14default_deleteIN11MyFtpServer9User_InfoEELb1EEC2Ev
FN:80,_ZNSt10_Head_baseILm1ESt14default_deleteINSt7__cxx1112basic_stringIcSt11char_traitsIcESaIcEEEELb1EEC2Ev
FNDA:32,_ZNSt10_Head_baseILm1ESt14default_deleteINSt7__cxx1112basic_stringIcSt11char_traitsIcESaIcEEEELb1EEC2Ev
FN:124,_ZNSt10_Head_baseILm1ESt14default_deleteINSt7__cxx1112basic_stringIcSt11char_traitsIcESaIcEEEELb1EE7_M_headERS8_
FNDA:0,_ZNSt10_Head_baseILm1ESt14default_deleteINSt7__cxx1112basic_stringIcSt11char_traitsIcESaIcEEEELb1EE7_M_headERS8_
FN:124,_ZNSt10_Head_baseILm1ESt14default_deleteIN11MyFtpServer9User_InfoEELb1EE7_M_headERS4_
FNDA:9,_ZNSt10_Head_baseILm1ESt14default_deleteIN11MyFtpServer9User_InfoEELb1EE7_M_headERS4_
FN:124,_ZNSt10_Head_baseILm1ESt14default_deleteINSt7__cxx1118basic_stringstreamIcSt11char_traitsIcESaIcEEEELb1EE7_M_headERS8_
FNDA:0,_ZNSt10_Head_baseILm1ESt14default_deleteINSt7__cxx1118basic_stringstreamIcSt11char_traitsIcESaIcEEEELb1EE7_M_headERS8_
FN:189,_ZNSt10_Head_baseILm0EPNSt7__cxx1112basic_stringIcSt11char_traitsIcESaIcEEELb0EEC2Ev
FNDA:32,_ZNSt10_Head_baseILm0EPNSt7__cxx1112basic_stringIcSt11char_traitsIcESaIcEEELb0EEC2Ev
FN:189,_ZNSt10_Head_baseILm0EPN11MyFtpServer9User_InfoELb0EEC2Ev
FNDA:6,_ZNSt10_Head_baseILm0EPN11MyFtpServer9User_InfoELb0EEC2Ev
FN:233,_ZNSt10_Head_baseILm0EPN11MyFtpServer9User_InfoELb0EE7_M_headERS3_
FNDA:21,_ZNSt10_Head_baseILm0EPN11MyFtpServer9User_InfoELb0EE7_M_headERS3_
FN:233,_ZNSt10_Head_baseILm0EPNSt7__cxx1112basic_stringIcSt11char_traitsIcESaIcEEELb0EE7_M_headERS7_
FNDA:45,_ZNSt10_Head_baseILm0EPNSt7__cxx1112basic_stringIcSt11char_traitsIcESaIcEEELb0EE7_M_headERS7_
FN:233,_ZNSt10_Head_baseILm0EPNSt7__cxx1118basic_stringstreamIcSt11char_traitsIcESaIcEEELb0EE7_M_headERS7_
FNDA:0,_ZNSt10_Head_baseILm0EPNSt7__cxx1118basic_stringstreamIcSt11char_traitsIcESaIcEEELb0EE7_M_headERS7_
FN:236,_ZNSt10_Head_baseILm0EPN11MyFtpServer9User_InfoELb0EE7_M_headERKS3_
FNDA:9,_ZNSt10_Head_baseILm0EPN11MyFtpServer9User_InfoELb0EE7_M_headERKS3_
FN:236,_ZNSt10_Head_baseILm0EPNSt7__cxx1112basic_stringIcSt11char_traitsIcESaIcEEELb0EE7_M_headERKS7_
FNDA:0,_ZNSt10_Head_baseILm0EPNSt7__cxx1112basic_stringIcSt11char_traitsIcESaIcEEELb0EE7_M_headERKS7_
FN:268,_ZNSt11_Tuple_implILm0EJPN11MyFtpServer9User_InfoESt14default_deleteIS1_EEE7_M_headERS5_
FNDA:21,_ZNSt11_Tuple_implILm0EJPN11MyFtpServer9User_InfoESt14default_deleteIS1_EEE7_M_headERS5_
FN:268,_ZNSt11_Tuple_implILm0EJPNSt7__cxx1118basic_stringstreamIcSt11char_traitsIcESaIcEEESt14default_deleteIS5_EEE7_M_headERS9_
FNDA:0,_ZNSt11_Tuple_implILm0EJPNSt7__cxx1118basic_stringstreamIcSt11char_traitsIcESaIcEEESt14default_deleteIS5_EEE7_M_headERS9_
FN:268,_ZNSt11_Tuple_implILm0EJPNSt7__cxx1112basic_stringIcSt11char_traitsIcESaIcEEESt14default_deleteIS5_EEE7_M_headERS9_
FNDA:45,_ZNSt11_Tuple_implILm0EJPNSt7__cxx1112basic_stringIcSt11char_traitsIcESaIcEEESt14default_deleteIS5_EEE7_M_headERS9_
FN:271,_ZNSt11_Tuple_implILm0EJPN11MyFtpServer9User_InfoESt14default_deleteIS1_EEE7_M_headERKS5_
FNDA:9,_ZNSt11_Tuple_implILm0EJPN11MyFtpServer9User_InfoESt14default_deleteIS1_EEE7_M_headERKS5_
FN:271,_ZNSt11_Tuple_implILm0EJPNSt7__cxx1112basic_stringIcSt11char_traitsIcESaIcEEESt14default_deleteIS5_EEE7_M_headERKS9_
FNDA:0,_ZNSt11_Tuple_implILm0EJPNSt7__cxx1112basic_stringIcSt11char_traitsIcESaIcEEESt14default_deleteIS5_EEE7_M_headERKS9_
FN:279,_ZNSt11_Tuple_implILm0EJPN11MyFtpServer9User_InfoESt14default_deleteIS1_EEEC2Ev
FNDA:6,_ZNSt11_Tuple_implILm0EJPN11MyFtpServer9User_InfoESt14default_deleteIS1_EEEC2Ev
FN:279,_ZNSt11_Tuple_implILm0EJPNSt7__cxx1112basic_stringIcSt11char_traitsIcESaIcEEESt14default_deleteIS5_EEEC2Ev
FNDA:32,_ZNSt11_Tuple_implILm0EJPNSt7__cxx1112basic_stringIcSt11char_traitsIcESaIcEEESt14default_deleteIS5_EEEC2Ev
FN:424,_ZNSt11_Tuple_implILm1EJSt14default_deleteIN11MyFtpServer9User_InfoEEEE7_M_headERS4_
FNDA:9,_ZNSt11_Tuple_implILm1EJSt14default_deleteIN11MyFtpServer9User_InfoEEEE7_M_headERS4_
FN:424,_ZNSt11_Tuple_implILm1EJSt14default_deleteINSt7__cxx1118basic_stringstreamIcSt11char_traitsIcESaIcEEEEEE7_M_headERS8_
FNDA:0,_ZNSt11_Tuple_implILm1EJSt14default_deleteINSt7__cxx1118basic_stringstreamIcSt11char_traitsIcESaIcEEEEEE7_M_headERS8_
FN:424,_ZNSt11_Tuple_implILm1EJSt14default_deleteINSt7__cxx1112basic_stringIcSt11char_traitsIcESaIcEEEEEE7_M_headERS8_
FNDA:0,_ZNSt11_Tuple_implILm1EJSt14default_deleteINSt7__cxx1112basic_stringIcSt11char_traitsIcESaIcEEEEEE7_M_headERS8_
FN:430,_ZNSt11_Tuple_implILm1EJSt14default_deleteIN11MyFtpServer9User_InfoEEEEC2Ev
FNDA:6,_ZNSt11_Tuple_implILm1EJSt14default_deleteIN11MyFtpServer9User_InfoEEEEC2Ev
FN:430,_ZNSt11_Tuple_implILm1EJSt14default_deleteINSt7__cxx1112basic_stringIcSt11char_traitsIcESaIcEEEEEEC2Ev
FNDA:32,_ZNSt11_Tuple_implILm1EJSt14default_deleteINSt7__cxx1112basic_stringIcSt11char_traitsIcESaIcEEEEEEC2Ev
FN:1049,_ZNSt5tupleIJPN11MyFtpServer9User_InfoESt14default_deleteIS1_EEEC2ILb1ELb1EEEv
FNDA:6,_ZNSt5tupleIJPN11MyFtpServer9User_InfoESt14default_deleteIS1_EEEC2ILb1ELb1EEEv
FN:1049,_ZNSt5tupleIJPNSt7__cxx1112basic_stringIcSt11char_traitsIcESaIcEEESt14default_deleteIS5_EEEC2ILb1ELb1EEEv
FNDA:32,_ZNSt5tupleIJPNSt7__cxx1112basic_stringIcSt11char_traitsIcESaIcEEESt14default_deleteIS5_EEEC2ILb1ELb1EEEv
FN:1377,_ZSt12__get_helperILm1ESt14default_deleteIN11MyFtpServer9User_InfoEEJEERT0_RSt11_Tuple_implIXT_EJS4_DpT1_EE
FNDA:9,_ZSt12__get_helperILm1ESt14default_deleteIN11MyFtpServer9User_InfoEEJEERT0_RSt11_Tuple_implIXT_EJS4_DpT1_EE
FN:1377,_ZSt12__get_helperILm1ESt14default_deleteINSt7__cxx1112basic_stringIcSt11char_traitsIcESaIcEEEEJEERT0_RSt11_Tuple_implIXT_EJS8_DpT1_EE
FNDA:0,_ZSt12__get_helperILm1ESt14default_deleteINSt7__cxx1112basic_stringIcSt11char_traitsIcESaIcEEEEJEERT0_RSt11_Tuple_implIXT_EJS8_DpT1_EE
FN:1377,_ZSt12__get_helperILm1ESt14default_deleteINSt7__cxx1118basic_stringstreamIcSt11char_traitsIcESaIcEEEEJEERT0_RSt11_Tuple_implIXT_EJS8_DpT1_EE
FNDA:0,_ZSt12__get_helperILm1ESt14default_deleteINSt7__cxx1118basic_stringstreamIcSt11char_traitsIcESaIcEEEEJEERT0_RSt11_Tuple_implIXT_EJS8_DpT1_EE
FN:1377,_ZSt12__get_helperILm0EPNSt7__cxx1118basic_stringstreamIcSt11char_traitsIcESaIcEEEJSt14default_deleteIS5_EEERT0_RSt11_Tuple_implIXT_EJS9_DpT1_EE
FNDA:0,_ZSt12__get_helperILm0EPNSt7__cxx1118basic_stringstreamIcSt11char_traitsIcESaIcEEEJSt14default_deleteIS5_EEERT0_RSt11_Tuple_implIXT_EJS9_DpT1_EE
FN:1377,_ZSt12__get_helperILm0EPNSt7__cxx1112basic_stringIcSt11char_traitsIcESaIcEEEJSt14default_deleteIS5_EEERT0_RSt11_Tuple_implIXT_EJS9_DpT1_EE
FNDA:45,_ZSt12__get_helperILm0EPNSt7__cxx1112basic_stringIcSt11char_traitsIcESaIcEEEJSt14default_deleteIS5_EEERT0_RSt11_Tuple_implIXT_EJS9_DpT1_EE
FN:1377,_ZSt12__get_helperILm0EPN11MyFtpServer9User_InfoEJSt14default_deleteIS1_EEERT0_RSt11_Tuple_implIXT_EJS5_DpT1_EE
FNDA:21,_ZSt12__get_helperILm0EPN11MyFtpServer9User_InfoEJSt14default_deleteIS1_EEERT0_RSt11_Tuple_implIXT_EJS5_DpT1_EE
FN:1382,_ZSt12__get_helperILm0EPNSt7__cxx1112basic_stringIcSt11char_traitsIcESaIcEEEJSt14default_deleteIS5_EEERKT0_RKSt11_Tuple_implIXT_EJS9_DpT1_EE
FNDA:0,_ZSt12__get_helperILm0EPNSt7__cxx1112basic_stringIcSt11char_traitsIcESaIcEEEJSt14default_deleteIS5_EEERKT0_RKSt11_Tuple_implIXT_EJS9_DpT1_EE
FN:1382,_ZSt12__get_helperILm0EPN11MyFtpServer9User_InfoEJSt14default_deleteIS1_EEERKT0_RKSt11_Tuple_implIXT_EJS5_DpT1_EE
FNDA:9,_ZSt12__get_helperILm0EPN11MyFtpServer9User_InfoEJSt14default_deleteIS1_EEERKT0_RKSt11_Tuple_implIXT_EJS5_DpT1_EE
FN:1393,_ZSt3getILm1EJPNSt7__cxx1118basic_stringstreamIcSt11char_traitsIcESaIcEEESt14default_deleteIS5_EEERNSt13tuple_elementIXT_ESt5tupleIJDpT0_EEE4typeERSD_
FNDA:0,_ZSt3getILm1EJPNSt7__cxx1118basic_stringstreamIcSt11char_traitsIcESaIcEEESt14default_deleteIS5_EEERNSt13tuple_elementIXT_ESt5tupleIJDpT0_EEE4typeERSD_
FN:1393,_ZSt3getILm1EJPN11MyFtpServer9User_InfoESt14default_deleteIS1_EEERNSt13tuple_elementIXT_ESt5tupleIJDpT0_EEE4typeERS9_
FNDA:9,_ZSt3getILm1EJPN11MyFtpServer9User_InfoESt14default_deleteIS1_EEERNSt13tuple_elementIXT_ESt5tupleIJDpT0_EEE4typeERS9_
FN:1393,_ZSt3getILm0EJPN11MyFtpServer9User_InfoESt14default_deleteIS1_EEERNSt13tuple_elementIXT_ESt5tupleIJDpT0_EEE4typeERS9_
FNDA:21,_ZSt3getILm0EJPN11MyFtpServer9User_InfoESt14default_deleteIS1_EEERNSt13tuple_elementIXT_ESt5tupleIJDpT0_EEE4typeERS9_
FN:1393,_ZSt3getILm1EJPNSt7__cxx1112basic_stringIcSt11char_traitsIcESaIcEEESt14default_deleteIS5_EEERNSt13tuple_elementIXT_ESt5tupleIJDpT0_EEE4typeERSD_
FNDA:0,_ZSt3getILm1EJPNSt7__cxx1112basic_stringIcSt11char_traitsIcESaIcEEESt14default_deleteIS5_EEERNSt13tuple_elementIXT_ESt5tupleIJDpT0_EEE4typeERSD_
FN:1393,_ZSt3getILm0EJPNSt7__cxx1112basic_stringIcSt11char_traitsIcESaIcEEESt14default_deleteIS5_EEERNSt13tuple_elementIXT_ESt5tupleIJDpT0_EEE4typeERSD_
FNDA:45,_ZSt3getILm0EJPNSt7__cxx1112basic_stringIcSt11char_traitsIcESaIcEEESt14default_deleteIS5_EEERNSt13tuple_elementIXT_ESt5tupleIJDpT0_EEE4typeERSD_
FN:1393,_ZSt3getILm0EJPNSt7__cxx1118basic_stringstreamIcSt11char_traitsIcESaIcEEESt14default_deleteIS5_EEERNSt13tuple_elementIXT_ESt5tupleIJDpT0_EEE4typeERSD_
FNDA:0,_ZSt3getILm0EJPNSt7__cxx1118basic_stringstreamIcSt11char_traitsIcESaIcEEESt14default_deleteIS5_EEERNSt13tuple_elementIXT_ESt5tupleIJDpT0_EEE4typeERSD_
FN:1399,_ZSt3getILm0EJPN11MyFtpServer9User_InfoESt14default_deleteIS1_EEERKNSt13tuple_elementIXT_ESt5tupleIJDpT0_EEE4typeERKS9_
FNDA:9,_ZSt3getILm0EJPN11MyFtpServer9User_InfoESt14default_deleteIS1_EEERKNSt13tuple_elementIXT_ESt5tupleIJDpT0_EEE4typeERKS9_
FN:1399,_ZSt3getILm0EJPNSt7__cxx1112basic_stringIcSt11char_traitsIcESaIcEEESt14default_deleteIS5_EEERKNSt13tuple_elementIXT_ESt5tupleIJDpT0_EEE4typeERKSD_
FNDA:0,_ZSt3getILm0EJPNSt7__cxx1112basic_stringIcSt11char_traitsIcESaIcEEESt14default_deleteIS5_EEERKNSt13tuple_elementIXT_ESt5tupleIJDpT0_EEE4typeERKSD_
DA:80,32
DA:81,32
DA:80,6
DA:81,6
DA:124,0
DA:124,0
DA:124,9
DA:189,32
DA:190,32
DA:189,6
DA:190,6
DA:233,21
DA:233,45
DA:233,0
DA:236,9
DA:236,0
DA:268,21
DA:268,45
DA:268,0
DA:271,9
DA:271,0
DA:279,32
DA:280,32
DA:279,6
DA:280,6
DA:424,0
DA:424,0
DA:424,9
DA:430,32
DA:431,32
DA:430,6
DA:431,6
DA:1049,32
DA:1051,32
DA:1049,6
DA:1051,6
DA:1377,0
DA:1378,0
DA:1377,0
DA:1378,0
DA:1377,9
DA:1378,9
DA:1377,21
DA:1378,21
DA:1377,45
DA:1378,45
DA:1377,0
DA:1378,0
DA:1382,9
DA:1383,9
DA:1382,0
DA:1383,0
DA:1393,0
DA:1394,0
DA:1393,0
DA:1394,0
DA:1393,9
DA:1394,9
DA:1393,21
DA:1394,21
DA:1393,45
DA:1394,45
DA:1393,0
DA:1394,0
DA:1399,9
DA:1400,9
DA:1399,0
DA:1400,0
end_of_record
SF:/usr/include/gtest/gtest.h
FN:305,_ZN7testing15AssertionResultC2IbEERKT_PNSt9enable_ifIXntsrSt14is_convertibleIS2_S0_E5valueEvE4typeE
FNDA:32,_ZN7testing15AssertionResultC2IbEERKT_PNSt9enable_ifIXntsrSt14is_convertibleIS2_S0_E5valueEvE4typeE
FN:324,_ZNK7testing15AssertionResultcvbEv
FNDA:45,_ZNK7testing15AssertionResultcvbEv
FN:333,_ZNK7testing15AssertionResult7messageEv
FNDA:0,_ZNK7testing15AssertionResult7messageEv
FN:337,_ZNK7testing15AssertionResult15failure_messageEv
FNDA:0,_ZNK7testing15AssertionResult15failure_messageEv
FN:427,_ZN7testing4Test14SetUpTestSuiteEv
FNDA:0,_ZN7testing4Test14SetUpTestSuiteEv
FN:435,_ZN7testing4Test17TearDownTestSuiteEv
FNDA:0,_ZN7testing4Test17TearDownTestSuiteEv
FN:440,_ZN7testing4Test16TearDownTestCaseEv
FNDA:0,_ZN7testing4Test16TearDownTestCaseEv
FN:441,_ZN7testing4Test13SetUpTestCaseEv
FNDA:0,_ZN7testing4Test13SetUpTestCaseEv
FN:522,_ZN7testing4Test5SetupEv
FNDA:0,_ZN7testing4Test5SetupEv
FN:1522,_ZN7testing8internal18CmpHelperEQFailureIiiEENS_15AssertionResultEPKcS4_RKT_RKT0_
FNDA:0,_ZN7testing8internal18CmpHelperEQFailureIiiEENS_15AssertionResultEPKcS4_RKT_RKT0_
FN:1541,_ZN7testing8internal11CmpHelperEQIiiEENS_15AssertionResultEPKcS4_RKT_RKT0_
FNDA:13,_ZN7testing8internal11CmpHelperEQIiiEENS_15AssertionResultEPKcS4_RKT_RKT0_
FN:1561,_ZN7testing8internal8EqHelper7CompareIiiLPv0EEENS_15AssertionResultEPKcS6_RKT_RKT0_
FNDA:13,_ZN7testing8internal8EqHelper7CompareIiiLPv0EEENS_15AssertionResultEPKcS6_RKT_RKT0_
DA:305,32
DA:311,32
DA:324,45
DA:333,0
DA:334,0
DA:337,0
DA:427,0
DA:435,0
DA:440,0
DA:441,0
DA:522,0
DA:1522,0
DA:1529,0
DA:1541,13
DA:1545,13
DA:1546,13
DA:1549,0
DA:1561,13
DA:1564,13
end_of_record
SF:/usr/include/c++/11/ext/type_traits.h
FN:152,_ZN9__gnu_cxx17__is_null_pointerIcEEbPT_
FNDA:0,_ZN9__gnu_cxx17__is_null_pointerIcEEbPT_
FN:152,_ZN9__gnu_cxx17__is_null_pointerIKcEEbPT_
FNDA:0,_ZN9__gnu_cxx17__is_null_pointerIKcEEbPT_
DA:152,0
DA:153,0
DA:152,0
DA:153,0
end_of_record
SF:/usr/include/c++/11/ext/alloc_traits.h
FN:97,_ZN9__gnu_cxx14__alloc_traitsISaIcEcE17_S_select_on_copyERKS1_
FNDA:0,_ZN9__gnu_cxx14__alloc_traitsISaIcEcE17_S_select_on_copyERKS1_
DA:97,0
DA:98,0
end_of_record
SF:/usr/include/c++/11/bits/move.h
FN:77,_ZSt7forwardISt14default_deleteIN11MyFtpServer9User_InfoEEEOT_RNSt16remove_referenceIS4_E4typeE
FNDA:3,_ZSt7forwardISt14default_deleteIN11MyFtpServer9User_InfoEEEOT_RNSt16remove_referenceIS4_E4typeE
FN:104,_ZSt4moveIRPN11MyFtpServer9User_InfoEEONSt16remove_referenceIT_E4typeEOS5_
FNDA:3,_ZSt4moveIRPN11MyFtpServer9User_InfoEEONSt16remove_referenceIT_E4typeEOS5_
FN:104,_ZSt4moveIRPNSt7__cxx1112basic_stringIcSt11char_traitsIcESaIcEEEEONSt16remove_referenceIT_E4typeEOS9_
FNDA:0,_ZSt4moveIRPNSt7__cxx1112basic_stringIcSt11char_traitsIcESaIcEEEEONSt16remove_referenceIT_E4typeEOS9_
FN:104,_ZSt4moveIRPNSt7__cxx1118basic_stringstreamIcSt11char_traitsIcESaIcEEEEONSt16remove_referenceIT_E4typeEOS9_
FNDA:0,_ZSt4moveIRPNSt7__cxx1118basic_stringstreamIcSt11char_traitsIcESaIcEEEEONSt16remove_referenceIT_E4typeEOS9_
FN:104,_ZSt4moveIRSaIcEEONSt16remove_referenceIT_E4typeEOS3_
FNDA:0,_ZSt4moveIRSaIcEEONSt16remove_referenceIT_E4typeEOS3_
DA:77,3
DA:78,3
DA:104,3
DA:105,3
DA:104,0
DA:105,0
DA:104,0
DA:105,0
DA:104,0
DA:105,0
end_of_record
TN:
SF:/usr/include/c++/11/bits/stl_iterator_base_types.h
FN:238,_ZSt19__iterator_categoryIPcENSt15iterator_traitsIT_E17iterator_categoryERKS2_
FNDA:0,_ZSt19__iterator_categoryIPcENSt15iterator_traitsIT_E17iterator_categoryERKS2_
FN:238,_ZSt19__iterator_categoryIPKcENSt15iterator_traitsIT_E17iterator_categoryERKS3_
FNDA:0,_ZSt19__iterator_categoryIPKcENSt15iterator_traitsIT_E17iterator_categoryERKS3_
DA:238,0
DA:239,0
DA:238,0
DA:239,0
end_of_record
SF:/usr/include/gtest/internal/gtest-internal.h
FN:435,_ZN7testing8internal9GetTypeIdI9Data_TestEEPKvv
FNDA:3,_ZN7testing8internal9GetTypeIdI9Data_TestEEPKvv
FN:454,_ZN7testing8internal15TestFactoryBaseD0Ev
FNDA:0,_ZN7testing8internal15TestFactoryBaseD0Ev
FN:454,_ZN7testing8internal15TestFactoryBaseD2Ev
FNDA:0,_ZN7testing8internal15TestFactoryBaseD2Ev
FN:461,_ZN7testing8internal15TestFactoryBaseC2Ev
FNDA:0,_ZN7testing8internal15TestFactoryBaseC2Ev
FN:472,_ZN7testing8internal15TestFactoryImplI34Data_Test_file_link_init_test_TestE10CreateTestEv
FNDA:1,_ZN7testing8internal15TestFactoryImplI34Data_Test_file_link_init_test_TestE10CreateTestEv
FN:472,_ZN7testing8internal15TestFactoryImplI29Data_Test_send_file_test_TestE10CreateTestEv
FNDA:1,_ZN7testing8internal15TestFactoryImplI29Data_Test_send_file_test_TestE10CreateTestEv
FN:472,_ZN7testing8internal15TestFactoryImplI34Data_Test_data_link_init_test_TestE10CreateTestEv
FNDA:1,_ZN7testing8internal15TestFactoryImplI34Data_Test_data_link_init_test_TestE10CreateTestEv
FN:493,_ZN7testing8internal12CodeLocationC2ERKNSt7__cxx1112basic_stringIcSt11char_traitsIcESaIcEEEi
FNDA:0,_ZN7testing8internal12CodeLocationC2ERKNSt7__cxx1112basic_stringIcSt11char_traitsIcESaIcEEEi
FN:506,_ZN7testing8internal19GetNotDefaultOrNullEPFvvES2_
FNDA:0,_ZN7testing8internal19GetNotDefaultOrNullEPFvvES2_
FN:521,_ZN7testing8internal16SuiteApiResolverI9Data_TestE19GetSetUpCaseOrSuiteEPKci
FNDA:3,_ZN7testing8internal16SuiteApiResolverI9Data_TestE19GetSetUpCaseOrSuiteEPKci
FN:542,_ZN7testing8internal16SuiteApiResolverI9Data_TestE22GetTearDownCaseOrSuiteEPKci
FNDA:3,_ZN7testing8internal16SuiteApiResolverI9Data_TestE22GetTearDownCaseOrSuiteEPKci
DA:435,3
DA:440,3
DA:454,0
DA:454,0
DA:461,0
DA:472,1
DA:472,1
DA:472,1
DA:493,0
DA:494,0
DA:506,0
DA:508,0
DA:521,3
DA:525,3
DA:527,3
DA:529,3
DA:532,0
DA:534,3
DA:542,3
DA:546,3
DA:548,3
DA:550,3
DA:553,0
DA:555,3
end_of_record
SF:/home/hksong/hksong/prjs/myftpserver/include/data_handler.h
FN:82,_ZN11MyFtpServer12Data_Handler13set_file_pathERKNSt7__cxx1112basic_stringIcSt11char_traitsIcESaIcEEE
FNDA:0,_ZN11MyFtpServer12Data_Handler13set_file_pathERKNSt7__cxx1112basic_stringIcSt11char_traitsIcESaIcEEE
DA:82,0
end_of_record
SF:/usr/include/gtest/gtest-printers.h
FN:212,_ZN7testing8internal52internal_stream_operator_without_lexical_name_lookup13StreamPrinter10PrintValueIivRSoEEvRKT_PSo
FNDA:0,_ZN7testing8internal52internal_stream_operator_without_lexical_name_lookup13StreamPrinter10PrintValueIivRSoEEvRKT_PSo
FN:306,_ZN7testing8internal17PrintWithFallbackIiEEvRKT_PSo
FNDA:0,_ZN7testing8internal17PrintWithFallbackIiEEvRKT_PSo
FN:333,_ZN7testing8internal19FormatForComparisonIiiE6FormatB5cxx11ERKi
FNDA:0,_ZN7testing8internal19FormatForComparisonIiiE6FormatB5cxx11ERKi
FN:413,_ZN7testing8internal33FormatForComparisonFailureMessageIiiEENSt7__cxx1112basic_stringIcSt11char_traitsIcESaIcEEERKT_RKT0_
FNDA:0,_ZN7testing8internal33FormatForComparisonFailureMessageIiiEENSt7__cxx1112basic_stringIcSt11char_traitsIcESaIcEEERKT_RKT0_
FN:440,_ZN7testing8internal7PrintToIiEEvRKT_PSo
FNDA:0,_ZN7testing8internal7PrintToIiEEvRKT_PSo
FN:682,_ZN7testing8internal16UniversalPrinterIiE5PrintERKiPSo
FNDA:0,_ZN7testing8internal16UniversalPrinterIiE5PrintERKiPSo
FN:864,_ZN7testing8internal21UniversalTersePrinterIiE5PrintERKiPSo
FNDA:0,_ZN7testing8internal21UniversalTersePrinterIiE5PrintERKiPSo
FN:976,_ZN7testing8internal14UniversalPrintIiEEvRKT_PSo
FNDA:0,_ZN7testing8internal14UniversalPrintIiEEvRKT_PSo
FN:1016,_ZN7testing13PrintToStringIiEENSt7__cxx1112basic_stringIcSt11char_traitsIcESaIcEEERKT_
FNDA:0,_ZN7testing13PrintToStringIiEENSt7__cxx1112basic_stringIcSt11char_traitsIcESaIcEEERKT_
DA:212,0
DA:215,0
DA:216,0
DA:306,0
DA:312,0
DA:313,0
DA:333,0
DA:334,0
DA:413,0
DA:415,0
DA:440,0
DA:441,0
DA:442,0
DA:682,0
DA:691,0
DA:692,0
DA:864,0
DA:865,0
DA:866,0
DA:976,0
DA:980,0
DA:981,0
DA:1016,0
DA:1017,0
DA:1018,0
DA:1019,0
DA:1020,0
end_of_record
SF:/usr/include/c++/11/ext/new_allocator.h
FN:79,_ZN9__gnu_cxx13new_allocatorIcEC2Ev
FNDA:0,_ZN9__gnu_cxx13new_allocatorIcEC2Ev
FN:82,_ZN9__gnu_cxx13new_allocatorIcEC2ERKS1_
FNDA:0,_ZN9__gnu_cxx13new_allocatorIcEC2ERKS1_
FN:89,_ZN9__gnu_cxx13new_allocatorIcED2Ev
FNDA:0,_ZN9__gnu_cxx13new_allocatorIcED2Ev
DA:79,0
DA:82,0
DA:89,0
end_of_record
SF:/usr/include/gtest/internal/gtest-port.h
FN:977,_ZN7testing8internal8GTestLog9GetStreamEv
FNDA:0,_ZN7testing8internal8GTestLog9GetStreamEv
DA:977,0
end_of_record
SF:/home/hksong/hksong/prjs/myftpserver/src/unit_test/data_test.cpp
FN:12,_ZN9Data_TestC2Ev
FNDA:3,_ZN9Data_TestC2Ev
FN:20,_ZN34Data_Test_file_link_init_test_TestC2Ev
FNDA:1,_ZN34Data_Test_file_link_init_test_TestC2Ev
FN:20,_ZN34Data_Test_file_link_init_test_TestD0Ev
FNDA:1,_ZN34Data_Test_file_link_init_test_TestD0Ev
FN:20,_ZN34Data_Test_file_link_init_test_TestD2Ev
FNDA:1,_ZN34Data_Test_file_link_init_test_TestD2Ev
FN:20,_ZN34Data_Test_file_link_init_test_Test8TestBodyEv
FNDA:1,_ZN34Data_Test_file_link_init_test_Test8TestBodyEv
FN:29,_ZN29Data_Test_send_file_test_TestC2Ev
FNDA:1,_ZN29Data_Test_send_file_test_TestC2Ev
FN:29,_ZN29Data_Test_send_file_test_TestD0Ev
FNDA:1,_ZN29Data_Test_send_file_test_TestD0Ev
FN:29,_ZN29Data_Test_send_file_test_TestD2Ev
FNDA:1,_ZN29Data_Test_send_file_test_TestD2Ev
FN:29,_ZN29Data_Test_send_file_test_Test8TestBodyEv
FNDA:1,_ZN29Data_Test_send_file_test_Test8TestBodyEv
FN:36,_ZN34Data_Test_data_link_init_test_TestC2Ev
FNDA:1,_ZN34Data_Test_data_link_init_test_TestC2Ev
FN:36,_ZN34Data_Test_data_link_init_test_TestD0Ev
FNDA:1,_ZN34Data_Test_data_link_init_test_TestD0Ev
FN:36,_ZN34Data_Test_data_link_init_test_TestD2Ev
FNDA:1,_ZN34Data_Test_data_link_init_test_TestD2Ev
FN:36,_ZN34Data_Test_data_link_init_test_Test8TestBodyEv
FNDA:1,_ZN34Data_Test_data_link_init_test_Test8TestBodyEv
DA:12,3
DA:13,3
DA:14,3
DA:20,1
DA:20,1
DA:20,1
DA:20,1
DA:22,1
DA:23,1
DA:24,1
DA:25,1
DA:26,1
DA:27,1
DA:29,1
DA:29,1
DA:29,1
DA:29,1
DA:31,1
DA:32,1
DA:33,1
DA:34,1
DA:36,1
DA:36,1
DA:36,1
DA:36,1
DA:38,1
DA:39,1
DA:40,1
end_of_record
SF:/usr/include/c++/11/bits/stl_iterator_base_funcs.h
FN:98,_ZSt10__distanceIPcENSt15iterator_traitsIT_E15difference_typeES2_S2_St26random_access_iterator_tag
FNDA:0,_ZSt10__distanceIPcENSt15iterator_traitsIT_E15difference_typeES2_S2_St26random_access_iterator_tag
FN:98,_ZSt10__distanceIPKcENSt15iterator_traitsIT_E15difference_typeES3_S3_St26random_access_iterator_tag
FNDA:0,_ZSt10__distanceIPKcENSt15iterator_traitsIT_E15difference_typeES3_S3_St26random_access_iterator_tag
FN:138,_ZSt8distanceIPcENSt15iterator_traitsIT_E15difference_typeES2_S2_
FNDA:0,_ZSt8distanceIPcENSt15iterator_traitsIT_E15difference_typeES2_S2_
FN:138,_ZSt8distanceIPKcENSt15iterator_traitsIT_E15difference_typeES3_S3_
FNDA:0,_ZSt8distanceIPKcENSt15iterator_traitsIT_E15difference_typeES3_S3_
DA:98,0
DA:104,0
DA:98,0
DA:104,0
DA:138,0
DA:141,0
DA:142,0
DA:138,0
DA:141,0
DA:142,0
end_of_record
SF:/usr/include/c++/11/bits/alloc_traits.h
FN:562,_ZNSt16allocator_traitsISaIcEE37select_on_container_copy_constructionERKS0_
FNDA:0,_ZNSt16allocator_traitsISaIcEE37select_on_container_copy_constructionERKS0_
DA:562,0
DA:563,0
end_of_record
SF:/usr/include/c++/11/iostream
end_of_record
SF:/usr/include/c++/11/bits/basic_string.h
FN:251,_ZNSt7__cxx1112basic_stringIcSt11char_traitsIcESaIcEE16_M_construct_auxIPcEEvT_S7_St12__false_type
FNDA:0,_ZNSt7__cxx1112basic_stringIcSt11char_traitsIcESaIcEE16_M_construct_auxIPcEEvT_S7_St12__false_type
FN:271,_ZNSt7__cxx1112basic_stringIcSt11char_traitsIcESaIcEE12_M_constructIPcEEvT_S7_
FNDA:0,_ZNSt7__cxx1112basic_stringIcSt11char_traitsIcESaIcEE12_M_constructIPcEEvT_S7_
FN:533,_ZNSt7__cxx1112basic_stringIcSt11char_traitsIcESaIcEEC2IS3_EEPKcRKS3_
FNDA:0,_ZNSt7__cxx1112basic_stringIcSt11char_traitsIcESaIcEEC2IS3_EEPKcRKS3_
DA:251,0
DA:255,0
DA:256,0
DA:271,0
DA:274,0
DA:275,0
DA:533,0
DA:534,0
DA:536,0
DA:539,0
DA:540,0
end_of_record
SF:/usr/include/c++/11/bits/basic_string.tcc
FN:206,_ZNSt7__cxx1112basic_stringIcSt11char_traitsIcESaIcEE12_M_constructIPcEEvT_S7_St20forward_iterator_tag
FNDA:0,_ZNSt7__cxx1112basic_stringIcSt11char_traitsIcESaIcEE12_M_constructIPcEEvT_S7_St20forward_iterator_tag
FN:206,_ZNSt7__cxx1112basic_stringIcSt11char_traitsIcESaIcEE12_M_constructIPKcEEvT_S8_St20forward_iterator_tag
FNDA:0,_ZNSt7__cxx1112basic_stringIcSt11char_traitsIcESaIcEE12_M_constructIPKcEEvT_S8_St20forward_iterator_tag
DA:206,0
DA:211,0
DA:212,0
DA:215,0
DA:217,0
DA:219,0
DA:220,0
DA:225,0
DA:226,0
DA:228,0
DA:229,0
DA:232,0
DA:233,0
DA:206,0
DA:211,0
DA:212,0
DA:215,0
DA:217,0
DA:219,0
DA:220,0
DA:225,0
DA:226,0
DA:228,0
DA:229,0
DA:232,0
DA:233,0
end_of_record
SF:/usr/include/c++/11/bits/char_traits.h
FN:106,_ZN9__gnu_cxx11char_traitsIcE2eqERKcS3_
FNDA:0,_ZN9__gnu_cxx11char_traitsIcE2eqERKcS3_
FN:167,_ZN9__gnu_cxx11char_traitsIcE6lengthEPKc
FNDA:0,_ZN9__gnu_cxx11char_traitsIcE6lengthEPKc
FN:393,_ZNSt11char_traitsIcE6lengthEPKc
FNDA:0,_ZNSt11char_traitsIcE6lengthEPKc
DA:106,0
DA:107,0
DA:167,0
DA:170,0
DA:171,0
DA:172,0
DA:173,0
DA:290,0
DA:393,0
DA:396,0
DA:397,0
DA:399,0
end_of_record
SF:/usr/include/gtest/gtest-message.h
end_of_record
SF:/usr/include/c++/11/ext/type_traits.h
FN:152,_ZN9__gnu_cxx17__is_null_pointerIcEEbPT_
FNDA:0,_ZN9__gnu_cxx17__is_null_pointerIcEEbPT_
FN:152,_ZN9__gnu_cxx17__is_null_pointerIKcEEbPT_
FNDA:0,_ZN9__gnu_cxx17__is_null_pointerIKcEEbPT_
DA:152,0
DA:153,0
DA:152,0
DA:153,0
end_of_record
SF:/usr/include/c++/11/bits/move.h
FN:77,_ZSt7forwardISt14default_deleteIN11MyFtpServer12Data_HandlerEEEOT_RNSt16remove_referenceIS4_E4typeE
FNDA:0,_ZSt7forwardISt14default_deleteIN11MyFtpServer12Data_HandlerEEEOT_RNSt16remove_referenceIS4_E4typeE
FN:104,_ZSt4moveIRPN11MyFtpServer12Data_HandlerEEONSt16remove_referenceIT_E4typeEOS5_
FNDA:0,_ZSt4moveIRPN11MyFtpServer12Data_HandlerEEONSt16remove_referenceIT_E4typeEOS5_
FN:104,_ZSt4moveIRPNSt7__cxx1112basic_stringIcSt11char_traitsIcESaIcEEEEONSt16remove_referenceIT_E4typeEOS9_
FNDA:0,_ZSt4moveIRPNSt7__cxx1112basic_stringIcSt11char_traitsIcESaIcEEEEONSt16remove_referenceIT_E4typeEOS9_
FN:104,_ZSt4moveIRPNSt7__cxx1118basic_stringstreamIcSt11char_traitsIcESaIcEEEEONSt16remove_referenceIT_E4typeEOS9_
FNDA:0,_ZSt4moveIRPNSt7__cxx1118basic_stringstreamIcSt11char_traitsIcESaIcEEEEONSt16remove_referenceIT_E4typeEOS9_
FN:104,_ZSt4moveIRSaIcEEONSt16remove_referenceIT_E4typeEOS3_
FNDA:0,_ZSt4moveIRSaIcEEONSt16remove_referenceIT_E4typeEOS3_
DA:77,0
DA:78,0
DA:104,0
DA:105,0
DA:104,0
DA:105,0
DA:104,0
DA:105,0
DA:104,0
DA:105,0
end_of_record
SF:/usr/include/c++/11/ext/alloc_traits.h
FN:97,_ZN9__gnu_cxx14__alloc_traitsISaIcEcE17_S_select_on_copyERKS1_
FNDA:0,_ZN9__gnu_cxx14__alloc_traitsISaIcEcE17_S_select_on_copyERKS1_
DA:97,0
DA:98,0
end_of_record
SF:/usr/include/gtest/gtest.h
FN:324,_ZNK7testing15AssertionResultcvbEv
FNDA:0,_ZNK7testing15AssertionResultcvbEv
FN:333,_ZNK7testing15AssertionResult7messageEv
FNDA:0,_ZNK7testing15AssertionResult7messageEv
FN:337,_ZNK7testing15AssertionResult15failure_messageEv
FNDA:0,_ZNK7testing15AssertionResult15failure_messageEv
FN:427,_ZN7testing4Test14SetUpTestSuiteEv
FNDA:0,_ZN7testing4Test14SetUpTestSuiteEv
FN:435,_ZN7testing4Test17TearDownTestSuiteEv
FNDA:0,_ZN7testing4Test17TearDownTestSuiteEv
FN:440,_ZN7testing4Test16TearDownTestCaseEv
FNDA:0,_ZN7testing4Test16TearDownTestCaseEv
FN:441,_ZN7testing4Test13SetUpTestCaseEv
FNDA:0,_ZN7testing4Test13SetUpTestCaseEv
FN:522,_ZN7testing4Test5SetupEv
FNDA:0,_ZN7testing4Test5SetupEv
FN:1522,_ZN7testing8internal18CmpHelperEQFailureIiiEENS_15AssertionResultEPKcS4_RKT_RKT0_
FNDA:0,_ZN7testing8internal18CmpHelperEQFailureIiiEENS_15AssertionResultEPKcS4_RKT_RKT0_
FN:1541,_ZN7testing8internal11CmpHelperEQIiiEENS_15AssertionResultEPKcS4_RKT_RKT0_
FNDA:0,_ZN7testing8internal11CmpHelperEQIiiEENS_15AssertionResultEPKcS4_RKT_RKT0_
FN:1561,_ZN7testing8internal8EqHelper7CompareIiiLPv0EEENS_15AssertionResultEPKcS6_RKT_RKT0_
FNDA:0,_ZN7testing8internal8EqHelper7CompareIiiLPv0EEENS_15AssertionResultEPKcS6_RKT_RKT0_
DA:324,0
DA:333,0
DA:334,0
DA:337,0
DA:427,0
DA:435,0
DA:440,0
DA:441,0
DA:522,0
DA:1522,0
DA:1529,0
DA:1541,0
DA:1545,0
DA:1546,0
DA:1549,0
DA:1561,0
DA:1564,0
end_of_record
SF:/usr/include/c++/11/bits/unique_ptr.h
FN:79,_ZNKSt14default_deleteINSt7__cxx1118basic_stringstreamIcSt11char_traitsIcESaIcEEEEclEPS5_
FNDA:0,_ZNKSt14default_deleteINSt7__cxx1118basic_stringstreamIcSt11char_traitsIcESaIcEEEEclEPS5_
FN:79,_ZNKSt14default_deleteIN11MyFtpServer12Data_HandlerEEclEPS1_
FNDA:0,_ZNKSt14default_deleteIN11MyFtpServer12Data_HandlerEEclEPS1_
FN:79,_ZNKSt14default_deleteINSt7__cxx1112basic_stringIcSt11char_traitsIcESaIcEEEEclEPS5_
FNDA:0,_ZNKSt14default_deleteINSt7__cxx1112basic_stringIcSt11char_traitsIcESaIcEEEEclEPS5_
FN:154,_ZNSt15__uniq_ptr_implIN11MyFtpServer12Data_HandlerESt14default_deleteIS1_EEC2Ev
FNDA:0,_ZNSt15__uniq_ptr_implIN11MyFtpServer12Data_HandlerESt14default_deleteIS1_EEC2Ev
FN:155,_ZNSt15__uniq_ptr_implIN11MyFtpServer12Data_HandlerESt14default_deleteIS1_EEC2EPS1_
FNDA:0,_ZNSt15__uniq_ptr_implIN11MyFtpServer12Data_HandlerESt14default_deleteIS1_EEC2EPS1_
FN:165,_ZNSt15__uniq_ptr_implIN11MyFtpServer12Data_HandlerESt14default_deleteIS1_EEaSEOS4_
FNDA:0,_ZNSt15__uniq_ptr_implIN11MyFtpServer12Data_HandlerESt14default_deleteIS1_EEaSEOS4_
FN:172,_ZNSt15__uniq_ptr_implINSt7__cxx1118basic_stringstreamIcSt11char_traitsIcESaIcEEESt14default_deleteIS5_EE6_M_ptrEv
FNDA:0,_ZNSt15__uniq_ptr_implINSt7__cxx1118basic_stringstreamIcSt11char_traitsIcESaIcEEESt14default_deleteIS5_EE6_M_ptrEv
FN:172,_ZNSt15__uniq_ptr_implINSt7__cxx1112basic_stringIcSt11char_traitsIcESaIcEEESt14default_deleteIS5_EE6_M_ptrEv
FNDA:0,_ZNSt15__uniq_ptr_implINSt7__cxx1112basic_stringIcSt11char_traitsIcESaIcEEESt14default_deleteIS5_EE6_M_ptrEv
FN:172,_ZNSt15__uniq_ptr_implIN11MyFtpServer12Data_HandlerESt14default_deleteIS1_EE6_M_ptrEv
FNDA:0,_ZNSt15__uniq_ptr_implIN11MyFtpServer12Data_HandlerESt14default_deleteIS1_EE6_M_ptrEv
FN:173,_ZNKSt15__uniq_ptr_implIN11MyFtpServer12Data_HandlerESt14default_deleteIS1_EE6_M_ptrEv
FNDA:0,_ZNKSt15__uniq_ptr_implIN11MyFtpServer12Data_HandlerESt14default_deleteIS1_EE6_M_ptrEv
FN:173,_ZNKSt15__uniq_ptr_implINSt7__cxx1112basic_stringIcSt11char_traitsIcESaIcEEESt14default_deleteIS5_EE6_M_ptrEv
FNDA:0,_ZNKSt15__uniq_ptr_implINSt7__cxx1112basic_stringIcSt11char_traitsIcESaIcEEESt14default_deleteIS5_EE6_M_ptrEv
FN:174,_ZNSt15__uniq_ptr_implINSt7__cxx1112basic_stringIcSt11char_traitsIcESaIcEEESt14default_deleteIS5_EE10_M_deleterEv
FNDA:0,_ZNSt15__uniq_ptr_implINSt7__cxx1112basic_stringIcSt11char_traitsIcESaIcEEESt14default_deleteIS5_EE10_M_deleterEv
FN:174,_ZNSt15__uniq_ptr_implIN11MyFtpServer12Data_HandlerESt14default_deleteIS1_EE10_M_deleterEv
FNDA:0,_ZNSt15__uniq_ptr_implIN11MyFtpServer12Data_HandlerESt14default_deleteIS1_EE10_M_deleterEv
FN:174,_ZNSt15__uniq_ptr_implINSt7__cxx1118basic_stringstreamIcSt11char_traitsIcESaIcEEESt14default_deleteIS5_EE10_M_deleterEv
FNDA:0,_ZNSt15__uniq_ptr_implINSt7__cxx1118basic_stringstreamIcSt11char_traitsIcESaIcEEESt14default_deleteIS5_EE10_M_deleterEv
FN:177,_ZNSt15__uniq_ptr_implIN11MyFtpServer12Data_HandlerESt14default_deleteIS1_EE5resetEPS1_
FNDA:0,_ZNSt15__uniq_ptr_implIN11MyFtpServer12Data_HandlerESt14default_deleteIS1_EE5resetEPS1_
FN:185,_ZNSt15__uniq_ptr_implIN11MyFtpServer12Data_HandlerESt14default_deleteIS1_EE7releaseEv
FNDA:0,_ZNSt15__uniq_ptr_implIN11MyFtpServer12Data_HandlerESt14default_deleteIS1_EE7releaseEv
FN:212,_ZNSt15__uniq_ptr_dataIN11MyFtpServer12Data_HandlerESt14default_deleteIS1_ELb1ELb1EEaSEOS4_
FNDA:0,_ZNSt15__uniq_ptr_dataIN11MyFtpServer12Data_HandlerESt14default_deleteIS1_ELb1ELb1EEaSEOS4_
FN:269,_ZNSt10unique_ptrIN11MyFtpServer12Data_HandlerESt14default_deleteIS1_EEC2IS3_vEEv
FNDA:3,_ZNSt10unique_ptrIN11MyFtpServer12Data_HandlerESt14default_deleteIS1_EEC2IS3_vEEv
FN:281,_ZNSt10unique_ptrIN11MyFtpServer12Data_HandlerESt14default_deleteIS1_EEC2IS3_vEEPS1_
FNDA:0,_ZNSt10unique_ptrIN11MyFtpServer12Data_HandlerESt14default_deleteIS1_EEC2IS3_vEEPS1_
FN:355,_ZNSt10unique_ptrIN11MyFtpServer12Data_HandlerESt14default_deleteIS1_EED2Ev
FNDA:0,_ZNSt10unique_ptrIN11MyFtpServer12Data_HandlerESt14default_deleteIS1_EED2Ev
FN:355,_ZNSt10unique_ptrINSt7__cxx1118basic_stringstreamIcSt11char_traitsIcESaIcEEESt14default_deleteIS5_EED2Ev
FNDA:0,_ZNSt10unique_ptrINSt7__cxx1118basic_stringstreamIcSt11char_traitsIcESaIcEEESt14default_deleteIS5_EED2Ev
FN:355,_ZNSt10unique_ptrINSt7__cxx1112basic_stringIcSt11char_traitsIcESaIcEEESt14default_deleteIS5_EED2Ev
FNDA:0,_ZNSt10unique_ptrINSt7__cxx1112basic_stringIcSt11char_traitsIcESaIcEEESt14default_deleteIS5_EED2Ev
FN:371,_ZNSt10unique_ptrIN11MyFtpServer12Data_HandlerESt14default_deleteIS1_EEaSEOS4_
FNDA:0,_ZNSt10unique_ptrIN11MyFtpServer12Data_HandlerESt14default_deleteIS1_EEaSEOS4_
FN:413,_ZNKSt10unique_ptrIN11MyFtpServer12Data_HandlerESt14default_deleteIS1_EEptEv
FNDA:0,_ZNKSt10unique_ptrIN11MyFtpServer12Data_HandlerESt14default_deleteIS1_EEptEv
FN:413,_ZNKSt10unique_ptrINSt7__cxx1112basic_stringIcSt11char_traitsIcESaIcEEESt14default_deleteIS5_EEptEv
FNDA:0,_ZNKSt10unique_ptrINSt7__cxx1112basic_stringIcSt11char_traitsIcESaIcEEESt14default_deleteIS5_EEptEv
FN:421,_ZNKSt10unique_ptrIN11MyFtpServer12Data_HandlerESt14default_deleteIS1_EE3getEv
FNDA:0,_ZNKSt10unique_ptrIN11MyFtpServer12Data_HandlerESt14default_deleteIS1_EE3getEv
FN:421,_ZNKSt10unique_ptrINSt7__cxx1112basic_stringIcSt11char_traitsIcESaIcEEESt14default_deleteIS5_EE3getEv
FNDA:0,_ZNKSt10unique_ptrINSt7__cxx1112basic_stringIcSt11char_traitsIcESaIcEEESt14default_deleteIS5_EE3getEv
FN:426,_ZNSt10unique_ptrINSt7__cxx1112basic_stringIcSt11char_traitsIcESaIcEEESt14default_deleteIS5_EE11get_deleterEv
FNDA:0,_ZNSt10unique_ptrINSt7__cxx1112basic_stringIcSt11char_traitsIcESaIcEEESt14default_deleteIS5_EE11get_deleterEv
FN:426,_ZNSt10unique_ptrINSt7__cxx1118basic_stringstreamIcSt11char_traitsIcESaIcEEESt14default_deleteIS5_EE11get_deleterEv
FNDA:0,_ZNSt10unique_ptrINSt7__cxx1118basic_stringstreamIcSt11char_traitsIcESaIcEEESt14default_deleteIS5_EE11get_deleterEv
FN:426,_ZNSt10unique_ptrIN11MyFtpServer12Data_HandlerESt14default_deleteIS1_EE11get_deleterEv
FNDA:0,_ZNSt10unique_ptrIN11MyFtpServer12Data_HandlerESt14default_deleteIS1_EE11get_deleterEv
DA:79,0
DA:85,0
DA:86,0
DA:79,0
DA:85,0
DA:86,0
DA:79,0
DA:85,0
DA:86,0
DA:154,0
DA:155,0
DA:165,0
DA:167,0
DA:168,0
DA:169,0
DA:172,0
DA:172,0
DA:172,0
DA:173,0
DA:173,0
DA:174,0
DA:174,0
DA:174,0
DA:177,0
DA:179,0
DA:180,0
DA:181,0
DA:182,0
DA:183,0
DA:185,0
DA:187,0
DA:188,0
DA:189,0
DA:212,0
DA:269,3
DA:270,3
DA:271,3
DA:281,0
DA:282,0
DA:283,0
DA:355,0
DA:359,0
DA:360,0
DA:361,0
DA:362,0
DA:363,0
DA:355,0
DA:359,0
DA:360,0
DA:361,0
DA:362,0
DA:363,0
DA:355,0
DA:359,0
DA:360,0
DA:361,0
DA:362,0
DA:363,0
DA:371,0
DA:413,0
DA:416,0
DA:413,0
DA:416,0
DA:421,0
DA:422,0
DA:421,0
DA:422,0
DA:426,0
DA:427,0
DA:426,0
DA:427,0
DA:426,0
DA:427,0
end_of_record
SF:/usr/include/c++/11/tuple
FN:80,_ZNSt10_Head_baseILm1ESt14default_deleteIN11MyFtpServer12Data_HandlerEELb1EEC2Ev
FNDA:0,_ZNSt10_Head_baseILm1ESt14default_deleteIN11MyFtpServer12Data_HandlerEELb1EEC2Ev
FN:124,_ZNSt10_Head_baseILm1ESt14default_deleteINSt7__cxx1112basic_stringIcSt11char_traitsIcESaIcEEEELb1EE7_M_headERS8_
FNDA:0,_ZNSt10_Head_baseILm1ESt14default_deleteINSt7__cxx1112basic_stringIcSt11char_traitsIcESaIcEEEELb1EE7_M_headERS8_
FN:124,_ZNSt10_Head_baseILm1ESt14default_deleteINSt7__cxx1118basic_stringstreamIcSt11char_traitsIcESaIcEEEELb1EE7_M_headERS8_
FNDA:0,_ZNSt10_Head_baseILm1ESt14default_deleteINSt7__cxx1118basic_stringstreamIcSt11char_traitsIcESaIcEEEELb1EE7_M_headERS8_
FN:124,_ZNSt10_Head_baseILm1ESt14default_deleteIN11MyFtpServer12Data_HandlerEELb1EE7_M_headERS4_
FNDA:0,_ZNSt10_Head_baseILm1ESt14default_deleteIN11MyFtpServer12Data_HandlerEELb1EE7_M_headERS4_
FN:189,_ZNSt10_Head_baseILm0EPN11MyFtpServer12Data_HandlerELb0EEC2Ev
FNDA:0,_ZNSt10_Head_baseILm0EPN11MyFtpServer12Data_HandlerELb0EEC2Ev
FN:233,_ZNSt10_Head_baseILm0EPN11MyFtpServer12Data_HandlerELb0EE7_M_headERS3_
FNDA:0,_ZNSt10_Head_baseILm0EPN11MyFtpServer12Data_HandlerELb0EE7_M_headERS3_
FN:233,_ZNSt10_Head_baseILm0EPNSt7__cxx1112basic_stringIcSt11char_traitsIcESaIcEEELb0EE7_M_headERS7_
FNDA:0,_ZNSt10_Head_baseILm0EPNSt7__cxx1112basic_stringIcSt11char_traitsIcESaIcEEELb0EE7_M_headERS7_
FN:233,_ZNSt10_Head_baseILm0EPNSt7__cxx1118basic_stringstreamIcSt11char_traitsIcESaIcEEELb0EE7_M_headERS7_
FNDA:0,_ZNSt10_Head_baseILm0EPNSt7__cxx1118basic_stringstreamIcSt11char_traitsIcESaIcEEELb0EE7_M_headERS7_
FN:236,_ZNSt10_Head_baseILm0EPNSt7__cxx1112basic_stringIcSt11char_traitsIcESaIcEEELb0EE7_M_headERKS7_
FNDA:0,_ZNSt10_Head_baseILm0EPNSt7__cxx1112basic_stringIcSt11char_traitsIcESaIcEEELb0EE7_M_headERKS7_
FN:236,_ZNSt10_Head_baseILm0EPN11MyFtpServer12Data_HandlerELb0EE7_M_headERKS3_
FNDA:0,_ZNSt10_Head_baseILm0EPN11MyFtpServer12Data_HandlerELb0EE7_M_headERKS3_
FN:268,_ZNSt11_Tuple_implILm0EJPNSt7__cxx1118basic_stringstreamIcSt11char_traitsIcESaIcEEESt14default_deleteIS5_EEE7_M_headERS9_
FNDA:0,_ZNSt11_Tuple_implILm0EJPNSt7__cxx1118basic_stringstreamIcSt11char_traitsIcESaIcEEESt14default_deleteIS5_EEE7_M_headERS9_
FN:268,_ZNSt11_Tuple_implILm0EJPNSt7__cxx1112basic_stringIcSt11char_traitsIcESaIcEEESt14default_deleteIS5_EEE7_M_headERS9_
FNDA:0,_ZNSt11_Tuple_implILm0EJPNSt7__cxx1112basic_stringIcSt11char_traitsIcESaIcEEESt14default_deleteIS5_EEE7_M_headERS9_
FN:268,_ZNSt11_Tuple_implILm0EJPN11MyFtpServer12Data_HandlerESt14default_deleteIS1_EEE7_M_headERS5_
FNDA:0,_ZNSt11_Tuple_implILm0EJPN11MyFtpServer12Data_HandlerESt14default_deleteIS1_EEE7_M_headERS5_
FN:271,_ZNSt11_Tuple_implILm0EJPNSt7__cxx1112basic_stringIcSt11char_traitsIcESaIcEEESt14default_deleteIS5_EEE7_M_headERKS9_
FNDA:0,_ZNSt11_Tuple_implILm0EJPNSt7__cxx1112basic_stringIcSt11char_traitsIcESaIcEEESt14default_deleteIS5_EEE7_M_headERKS9_
FN:271,_ZNSt11_Tuple_implILm0EJPN11MyFtpServer12Data_HandlerESt14default_deleteIS1_EEE7_M_headERKS5_
FNDA:0,_ZNSt11_Tuple_implILm0EJPN11MyFtpServer12Data_HandlerESt14default_deleteIS1_EEE7_M_headERKS5_
FN:279,_ZNSt11_Tuple_implILm0EJPN11MyFtpServer12Data_HandlerESt14default_deleteIS1_EEEC2Ev
FNDA:0,_ZNSt11_Tuple_implILm0EJPN11MyFtpServer12Data_HandlerESt14default_deleteIS1_EEEC2Ev
FN:424,_ZNSt11_Tuple_implILm1EJSt14default_deleteINSt7__cxx1118basic_stringstreamIcSt11char_traitsIcESaIcEEEEEE7_M_headERS8_
FNDA:0,_ZNSt11_Tuple_implILm1EJSt14default_deleteINSt7__cxx1118basic_stringstreamIcSt11char_traitsIcESaIcEEEEEE7_M_headERS8_
FN:424,_ZNSt11_Tuple_implILm1EJSt14default_deleteINSt7__cxx1112basic_stringIcSt11char_traitsIcESaIcEEEEEE7_M_headERS8_
FNDA:0,_ZNSt11_Tuple_implILm1EJSt14default_deleteINSt7__cxx1112basic_stringIcSt11char_traitsIcESaIcEEEEEE7_M_headERS8_
FN:424,_ZNSt11_Tuple_implILm1EJSt14default_deleteIN11MyFtpServer12Data_HandlerEEEE7_M_headERS4_
FNDA:0,_ZNSt11_Tuple_implILm1EJSt14default_deleteIN11MyFtpServer12Data_HandlerEEEE7_M_headERS4_
FN:430,_ZNSt11_Tuple_implILm1EJSt14default_deleteIN11MyFtpServer12Data_HandlerEEEEC2Ev
FNDA:0,_ZNSt11_Tuple_implILm1EJSt14default_deleteIN11MyFtpServer12Data_HandlerEEEEC2Ev
FN:1049,_ZNSt5tupleIJPN11MyFtpServer12Data_HandlerESt14default_deleteIS1_EEEC2ILb1ELb1EEEv
FNDA:0,_ZNSt5tupleIJPN11MyFtpServer12Data_HandlerESt14default_deleteIS1_EEEC2ILb1ELb1EEEv
FN:1377,_ZSt12__get_helperILm1ESt14default_deleteINSt7__cxx1112basic_stringIcSt11char_traitsIcESaIcEEEEJEERT0_RSt11_Tuple_implIXT_EJS8_DpT1_EE
FNDA:0,_ZSt12__get_helperILm1ESt14default_deleteINSt7__cxx1112basic_stringIcSt11char_traitsIcESaIcEEEEJEERT0_RSt11_Tuple_implIXT_EJS8_DpT1_EE
FN:1377,_ZSt12__get_helperILm1ESt14default_deleteINSt7__cxx1118basic_stringstreamIcSt11char_traitsIcESaIcEEEEJEERT0_RSt11_Tuple_implIXT_EJS8_DpT1_EE
FNDA:0,_ZSt12__get_helperILm1ESt14default_deleteINSt7__cxx1118basic_stringstreamIcSt11char_traitsIcESaIcEEEEJEERT0_RSt11_Tuple_implIXT_EJS8_DpT1_EE
FN:1377,_ZSt12__get_helperILm1ESt14default_deleteIN11MyFtpServer12Data_HandlerEEJEERT0_RSt11_Tuple_implIXT_EJS4_DpT1_EE
FNDA:0,_ZSt12__get_helperILm1ESt14default_deleteIN11MyFtpServer12Data_HandlerEEJEERT0_RSt11_Tuple_implIXT_EJS4_DpT1_EE
FN:1377,_ZSt12__get_helperILm0EPN11MyFtpServer12Data_HandlerEJSt14default_deleteIS1_EEERT0_RSt11_Tuple_implIXT_EJS5_DpT1_EE
FNDA:0,_ZSt12__get_helperILm0EPN11MyFtpServer12Data_HandlerEJSt14default_deleteIS1_EEERT0_RSt11_Tuple_implIXT_EJS5_DpT1_EE
FN:1377,_ZSt12__get_helperILm0EPNSt7__cxx1112basic_stringIcSt11char_traitsIcESaIcEEEJSt14default_deleteIS5_EEERT0_RSt11_Tuple_implIXT_EJS9_DpT1_EE
FNDA:0,_ZSt12__get_helperILm0EPNSt7__cxx1112basic_stringIcSt11char_traitsIcESaIcEEEJSt14default_deleteIS5_EEERT0_RSt11_Tuple_implIXT_EJS9_DpT1_EE
FN:1377,_ZSt12__get_helperILm0EPNSt7__cxx1118basic_stringstreamIcSt11char_traitsIcESaIcEEEJSt14default_deleteIS5_EEERT0_RSt11_Tuple_implIXT_EJS9_DpT1_EE
FNDA:0,_ZSt12__get_helperILm0EPNSt7__cxx1118basic_stringstreamIcSt11char_traitsIcESaIcEEEJSt14default_deleteIS5_EEERT0_RSt11_Tuple_implIXT_EJS9_DpT1_EE
FN:1382,_ZSt12__get_helperILm0EPNSt7__cxx1112basic_stringIcSt11char_traitsIcESaIcEEEJSt14default_deleteIS5_EEERKT0_RKSt11_Tuple_implIXT_EJS9_DpT1_EE
FNDA:0,_ZSt12__get_helperILm0EPNSt7__cxx1112basic_stringIcSt11char_traitsIcESaIcEEEJSt14default_deleteIS5_EEERKT0_RKSt11_Tuple_implIXT_EJS9_DpT1_EE
FN:1382,_ZSt12__get_helperILm0EPN11MyFtpServer12Data_HandlerEJSt14default_deleteIS1_EEERKT0_RKSt11_Tuple_implIXT_EJS5_DpT1_EE
FNDA:0,_ZSt12__get_helperILm0EPN11MyFtpServer12Data_HandlerEJSt14default_deleteIS1_EEERKT0_RKSt11_Tuple_implIXT_EJS5_DpT1_EE
FN:1393,_ZSt3getILm1EJPN11MyFtpServer12Data_HandlerESt14default_deleteIS1_EEERNSt13tuple_elementIXT_ESt5tupleIJDpT0_EEE4typeERS9_
FNDA:0,_ZSt3getILm1EJPN11MyFtpServer12Data_HandlerESt14default_deleteIS1_EEERNSt13tuple_elementIXT_ESt5tupleIJDpT0_EEE4typeERS9_
FN:1393,_ZSt3getILm0EJPN11MyFtpServer12Data_HandlerESt14default_deleteIS1_EEERNSt13tuple_elementIXT_ESt5tupleIJDpT0_EEE4typeERS9_
FNDA:0,_ZSt3getILm0EJPN11MyFtpServer12Data_HandlerESt14default_deleteIS1_EEERNSt13tuple_elementIXT_ESt5tupleIJDpT0_EEE4typeERS9_
FN:1393,_ZSt3getILm1EJPNSt7__cxx1118basic_stringstreamIcSt11char_traitsIcESaIcEEESt14default_deleteIS5_EEERNSt13tuple_elementIXT_ESt5tupleIJDpT0_EEE4typeERSD_
FNDA:0,_ZSt3getILm1EJPNSt7__cxx1118basic_stringstreamIcSt11char_traitsIcESaIcEEESt14default_deleteIS5_EEERNSt13tuple_elementIXT_ESt5tupleIJDpT0_EEE4typeERSD_
FN:1393,_ZSt3getILm1EJPNSt7__cxx1112basic_stringIcSt11char_traitsIcESaIcEEESt14default_deleteIS5_EEERNSt13tuple_elementIXT_ESt5tupleIJDpT0_EEE4typeERSD_
FNDA:0,_ZSt3getILm1EJPNSt7__cxx1112basic_stringIcSt11char_traitsIcESaIcEEESt14default_deleteIS5_EEERNSt13tuple_elementIXT_ESt5tupleIJDpT0_EEE4typeERSD_
FN:1393,_ZSt3getILm0EJPNSt7__cxx1112basic_stringIcSt11char_traitsIcESaIcEEESt14default_deleteIS5_EEERNSt13tuple_elementIXT_ESt5tupleIJDpT0_EEE4typeERSD_
FNDA:0,_ZSt3getILm0EJPNSt7__cxx1112basic_stringIcSt11char_traitsIcESaIcEEESt14default_deleteIS5_EEERNSt13tuple_elementIXT_ESt5tupleIJDpT0_EEE4typeERSD_
FN:1393,_ZSt3getILm0EJPNSt7__cxx1118basic_stringstreamIcSt11char_traitsIcESaIcEEESt14default_deleteIS5_EEERNSt13tuple_elementIXT_ESt5tupleIJDpT0_EEE4typeERSD_
FNDA:0,_ZSt3getILm0EJPNSt7__cxx1118basic_stringstreamIcSt11char_traitsIcESaIcEEESt14default_deleteIS5_EEERNSt13tuple_elementIXT_ESt5tupleIJDpT0_EEE4typeERSD_
FN:1399,_ZSt3getILm0EJPNSt7__cxx1112basic_stringIcSt11char_traitsIcESaIcEEESt14default_deleteIS5_EEERKNSt13tuple_elementIXT_ESt5tupleIJDpT0_EEE4typeERKSD_
FNDA:0,_ZSt3getILm0EJPNSt7__cxx1112basic_stringIcSt11char_traitsIcESaIcEEESt14default_deleteIS5_EEERKNSt13tuple_elementIXT_ESt5tupleIJDpT0_EEE4typeERKSD_
FN:1399,_ZSt3getILm0EJPN11MyFtpServer12Data_HandlerESt14default_deleteIS1_EEERKNSt13tuple_elementIXT_ESt5tupleIJDpT0_EEE4typeERKS9_
FNDA:0,_ZSt3getILm0EJPN11MyFtpServer12Data_HandlerESt14default_deleteIS1_EEERKNSt13tuple_elementIXT_ESt5tupleIJDpT0_EEE4typeERKS9_
DA:80,0
DA:81,0
DA:124,0
DA:124,0
DA:124,0
DA:189,0
DA:190,0
DA:233,0
DA:233,0
DA:233,0
DA:236,0
DA:236,0
DA:268,0
DA:268,0
DA:268,0
DA:271,0
DA:271,0
DA:279,0
DA:280,0
DA:424,0
DA:424,0
DA:424,0
DA:430,0
DA:431,0
DA:1049,0
DA:1051,0
DA:1377,0
DA:1378,0
DA:1377,0
DA:1378,0
DA:1377,0
DA:1378,0
DA:1377,0
DA:1378,0
DA:1377,0
DA:1378,0
DA:1377,0
DA:1378,0
DA:1382,0
DA:1383,0
DA:1382,0
DA:1383,0
DA:1393,0
DA:1394,0
DA:1393,0
DA:1394,0
DA:1393,0
DA:1394,0
DA:1393,0
DA:1394,0
DA:1393,0
DA:1394,0
DA:1393,0
DA:1394,0
DA:1399,0
DA:1400,0
DA:1399,0
DA:1400,0
end_of_record
TN:
SF:/usr/include/gtest/gtest.h
FN:2489,_Z13RUN_ALL_TESTSv
FNDA:1,_Z13RUN_ALL_TESTSv
DA:2489,1
DA:2490,1
end_of_record
SF:/usr/include/ace/Thread_Manager.inl
FN:72,_ZN26ACE_Thread_Descriptor_BaseD0Ev
FNDA:0,_ZN26ACE_Thread_Descriptor_BaseD0Ev
FN:72,_ZN26ACE_Thread_Descriptor_BaseD2Ev
FNDA:0,_ZN26ACE_Thread_Descriptor_BaseD2Ev
DA:72,0
DA:74,0
DA:72,0
DA:74,0
end_of_record
SF:/usr/include/c++/11/iostream
end_of_record
SF:/home/hksong/hksong/prjs/myftpserver/src/unit_test/main.cpp
FN:18,main
FNDA:1,main
DA:18,1
DA:20,1
DA:21,1
end_of_record
SF:/usr/include/ace/Base_Thread_Adapter.h
FN:54,_ZN24ACE_OS_Thread_DescriptorD0Ev
FNDA:0,_ZN24ACE_OS_Thread_DescriptorD0Ev
FN:54,_ZN24ACE_OS_Thread_DescriptorD2Ev
FNDA:0,_ZN24ACE_OS_Thread_DescriptorD2Ev
DA:54,0
DA:54,0
end_of_record
TN:
SF:/home/hksong/hksong/prjs/myftpserver/src/unit_test/command_test.cpp
FN:16,_ZN12Command_TestC2Ev
FNDA:26,_ZN12Command_TestC2Ev
FN:21,_ZN12Command_Test10login_userEv
FNDA:26,_ZN12Command_Test10login_userEv
FN:31,_ZN12Command_Test11logout_userEv
FNDA:27,_ZN12Command_Test11logout_userEv
FN:37,_ZN12Command_Test5SetUpEv
FNDA:26,_ZN12Command_Test5SetUpEv
FN:43,_ZN12Command_Test8TearDownEv
FNDA:26,_ZN12Command_Test8TearDownEv
FN:50,_ZN41Command_Test_parseline_test_cmd_para_TestC2Ev
FNDA:1,_ZN41Command_Test_parseline_test_cmd_para_TestC2Ev
FN:50,_ZN41Command_Test_parseline_test_cmd_para_Test8TestBodyEv
FNDA:1,_ZN41Command_Test_parseline_test_cmd_para_Test8TestBodyEv
FN:50,_ZN41Command_Test_parseline_test_cmd_para_TestD2Ev
FNDA:1,_ZN41Command_Test_parseline_test_cmd_para_TestD2Ev
FN:50,_ZN41Command_Test_parseline_test_cmd_para_TestD0Ev
FNDA:1,_ZN41Command_Test_parseline_test_cmd_para_TestD0Ev
FN:62,_ZN36Command_Test_parseline_test_cmd_TestC2Ev
FNDA:1,_ZN36Command_Test_parseline_test_cmd_TestC2Ev
FN:62,_ZN36Command_Test_parseline_test_cmd_Test8TestBodyEv
FNDA:1,_ZN36Command_Test_parseline_test_cmd_Test8TestBodyEv
FN:62,_ZN36Command_Test_parseline_test_cmd_TestD2Ev
FNDA:1,_ZN36Command_Test_parseline_test_cmd_TestD2Ev
FN:62,_ZN36Command_Test_parseline_test_cmd_TestD0Ev
FNDA:1,_ZN36Command_Test_parseline_test_cmd_TestD0Ev
FN:73,_ZN38Command_Test_parseline_test_error_TestC2Ev
FNDA:1,_ZN38Command_Test_parseline_test_error_TestC2Ev
FN:73,_ZN38Command_Test_parseline_test_error_TestD2Ev
FNDA:1,_ZN38Command_Test_parseline_test_error_TestD2Ev
FN:73,_ZN38Command_Test_parseline_test_error_TestD0Ev
FNDA:1,_ZN38Command_Test_parseline_test_error_TestD0Ev
FN:73,_ZN38Command_Test_parseline_test_error_Test8TestBodyEv
FNDA:1,_ZN38Command_Test_parseline_test_error_Test8TestBodyEv
FN:82,_ZN34Command_Test_process_cmd_test_Test8TestBodyEv
FNDA:1,_ZN34Command_Test_process_cmd_test_Test8TestBodyEv
FN:82,_ZN34Command_Test_process_cmd_test_TestD2Ev
FNDA:1,_ZN34Command_Test_process_cmd_test_TestD2Ev
FN:82,_ZN34Command_Test_process_cmd_test_TestD0Ev
FNDA:1,_ZN34Command_Test_process_cmd_test_TestD0Ev
FN:82,_ZN34Command_Test_process_cmd_test_TestC2Ev
FNDA:1,_ZN34Command_Test_process_cmd_test_TestC2Ev
FN:90,_ZN40Command_Test_process_cmd_test_error_Test8TestBodyEv
FNDA:1,_ZN40Command_Test_process_cmd_test_error_Test8TestBodyEv
FN:90,_ZN40Command_Test_process_cmd_test_error_TestD2Ev
FNDA:1,_ZN40Command_Test_process_cmd_test_error_TestD2Ev
FN:90,_ZN40Command_Test_process_cmd_test_error_TestD0Ev
FNDA:1,_ZN40Command_Test_process_cmd_test_error_TestD0Ev
FN:90,_ZN40Command_Test_process_cmd_test_error_TestC2Ev
FNDA:1,_ZN40Command_Test_process_cmd_test_error_TestC2Ev
FN:98,_ZN49Command_Test_send_and_get_reponse_local_test_TestD2Ev
FNDA:1,_ZN49Command_Test_send_and_get_reponse_local_test_TestD2Ev
FN:98,_ZN49Command_Test_send_and_get_reponse_local_test_TestD0Ev
FNDA:1,_ZN49Command_Test_send_and_get_reponse_local_test_TestD0Ev
FN:98,_ZN49Command_Test_send_and_get_reponse_local_test_Test8TestBodyEv
FNDA:1,_ZN49Command_Test_send_and_get_reponse_local_test_Test8TestBodyEv
FN:98,_ZN49Command_Test_send_and_get_reponse_local_test_TestC2Ev
FNDA:1,_ZN49Command_Test_send_and_get_reponse_local_test_TestC2Ev
FN:108,_ZN42Command_Test_get_real_path_test_user1_TestC2Ev
FNDA:1,_ZN42Command_Test_get_real_path_test_user1_TestC2Ev
FN:108,_ZN42Command_Test_get_real_path_test_user1_Test8TestBodyEv
FNDA:1,_ZN42Command_Test_get_real_path_test_user1_Test8TestBodyEv
FN:108,_ZN42Command_Test_get_real_path_test_user1_TestD2Ev
FNDA:1,_ZN42Command_Test_get_real_path_test_user1_TestD2Ev
FN:108,_ZN42Command_Test_get_real_path_test_user1_TestD0Ev
FNDA:1,_ZN42Command_Test_get_real_path_test_user1_TestD0Ev
FN:118,_ZN42Command_Test_get_real_path_test_user2_TestD0Ev
FNDA:1,_ZN42Command_Test_get_real_path_test_user2_TestD0Ev
FN:118,_ZN42Command_Test_get_real_path_test_user2_Test8TestBodyEv
FNDA:1,_ZN42Command_Test_get_real_path_test_user2_Test8TestBodyEv
FN:118,_ZN42Command_Test_get_real_path_test_user2_TestD2Ev
FNDA:1,_ZN42Command_Test_get_real_path_test_user2_TestD2Ev
FN:118,_ZN42Command_Test_get_real_path_test_user2_TestC2Ev
FNDA:1,_ZN42Command_Test_get_real_path_test_user2_TestC2Ev
FN:137,_ZN31Command_Test_list_dir_test_TestD2Ev
FNDA:1,_ZN31Command_Test_list_dir_test_TestD2Ev
FN:137,_ZN31Command_Test_list_dir_test_TestD0Ev
FNDA:1,_ZN31Command_Test_list_dir_test_TestD0Ev
FN:137,_ZN31Command_Test_list_dir_test_Test8TestBodyEv
FNDA:1,_ZN31Command_Test_list_dir_test_Test8TestBodyEv
FN:137,_ZN31Command_Test_list_dir_test_TestC2Ev
FNDA:1,_ZN31Command_Test_list_dir_test_TestC2Ev
FN:147,_ZN34Command_Test_handle_user_test_TestD0Ev
FNDA:1,_ZN34Command_Test_handle_user_test_TestD0Ev
FN:147,_ZN34Command_Test_handle_user_test_TestD2Ev
FNDA:1,_ZN34Command_Test_handle_user_test_TestD2Ev
FN:147,_ZN34Command_Test_handle_user_test_Test8TestBodyEv
FNDA:1,_ZN34Command_Test_handle_user_test_Test8TestBodyEv
FN:147,_ZN34Command_Test_handle_user_test_TestC2Ev
FNDA:1,_ZN34Command_Test_handle_user_test_TestC2Ev
FN:155,_ZN40Command_Test_handle_user_test_error_Test8TestBodyEv
FNDA:1,_ZN40Command_Test_handle_user_test_error_Test8TestBodyEv
FN:155,_ZN40Command_Test_handle_user_test_error_TestD2Ev
FNDA:1,_ZN40Command_Test_handle_user_test_error_TestD2Ev
FN:155,_ZN40Command_Test_handle_user_test_error_TestD0Ev
FNDA:1,_ZN40Command_Test_handle_user_test_error_TestD0Ev
FN:155,_ZN40Command_Test_handle_user_test_error_TestC2Ev
FNDA:1,_ZN40Command_Test_handle_user_test_error_TestC2Ev
FN:163,_ZN34Command_Test_handle_pass_test_TestD0Ev
FNDA:1,_ZN34Command_Test_handle_pass_test_TestD0Ev
FN:163,_ZN34Command_Test_handle_pass_test_TestD2Ev
FNDA:1,_ZN34Command_Test_handle_pass_test_TestD2Ev
FN:163,_ZN34Command_Test_handle_pass_test_Test8TestBodyEv
FNDA:1,_ZN34Command_Test_handle_pass_test_Test8TestBodyEv
FN:163,_ZN34Command_Test_handle_pass_test_TestC2Ev
FNDA:1,_ZN34Command_Test_handle_pass_test_TestC2Ev
FN:174,_ZN40Command_Test_handle_pass_test_error_TestD0Ev
FNDA:1,_ZN40Command_Test_handle_pass_test_error_TestD0Ev
FN:174,_ZN40Command_Test_handle_pass_test_error_TestD2Ev
FNDA:1,_ZN40Command_Test_handle_pass_test_error_TestD2Ev
FN:174,_ZN40Command_Test_handle_pass_test_error_Test8TestBodyEv
FNDA:1,_ZN40Command_Test_handle_pass_test_error_Test8TestBodyEv
FN:174,_ZN40Command_Test_handle_pass_test_error_TestC2Ev
FNDA:1,_ZN40Command_Test_handle_pass_test_error_TestC2Ev
FN:185,_ZN34Command_Test_handle_syst_test_Test8TestBodyEv
FNDA:1,_ZN34Command_Test_handle_syst_test_Test8TestBodyEv
FN:185,_ZN34Command_Test_handle_syst_test_TestC2Ev
FNDA:1,_ZN34Command_Test_handle_syst_test_TestC2Ev
FN:185,_ZN34Command_Test_handle_syst_test_TestD2Ev
FNDA:1,_ZN34Command_Test_handle_syst_test_TestD2Ev
FN:185,_ZN34Command_Test_handle_syst_test_TestD0Ev
FNDA:1,_ZN34Command_Test_handle_syst_test_TestD0Ev
FN:193,_ZN34Command_Test_handle_epsv_test_TestC2Ev
FNDA:1,_ZN34Command_Test_handle_epsv_test_TestC2Ev
FN:193,_ZN34Command_Test_handle_epsv_test_Test8TestBodyEv
FNDA:1,_ZN34Command_Test_handle_epsv_test_Test8TestBodyEv
FN:193,_ZN34Command_Test_handle_epsv_test_TestD0Ev
FNDA:1,_ZN34Command_Test_handle_epsv_test_TestD0Ev
FN:193,_ZN34Command_Test_handle_epsv_test_TestD2Ev
FNDA:1,_ZN34Command_Test_handle_epsv_test_TestD2Ev
FN:201,_ZN34Command_Test_handle_eprt_test_TestC2Ev
FNDA:1,_ZN34Command_Test_handle_eprt_test_TestC2Ev
FN:201,_ZN34Command_Test_handle_eprt_test_TestD0Ev
FNDA:1,_ZN34Command_Test_handle_eprt_test_TestD0Ev
FN:201,_ZN34Command_Test_handle_eprt_test_TestD2Ev
FNDA:1,_ZN34Command_Test_handle_eprt_test_TestD2Ev
FN:201,_ZN34Command_Test_handle_eprt_test_Test8TestBodyEv
FNDA:1,_ZN34Command_Test_handle_eprt_test_Test8TestBodyEv
FN:209,_ZN34Command_Test_handle_feat_test_TestC2Ev
FNDA:1,_ZN34Command_Test_handle_feat_test_TestC2Ev
FN:209,_ZN34Command_Test_handle_feat_test_TestD0Ev
FNDA:1,_ZN34Command_Test_handle_feat_test_TestD0Ev
FN:209,_ZN34Command_Test_handle_feat_test_TestD2Ev
FNDA:1,_ZN34Command_Test_handle_feat_test_TestD2Ev
FN:209,_ZN34Command_Test_handle_feat_test_Test8TestBodyEv
FNDA:1,_ZN34Command_Test_handle_feat_test_Test8TestBodyEv
FN:217,_ZN34Command_Test_handle_pasv_test_Test8TestBodyEv
FNDA:1,_ZN34Command_Test_handle_pasv_test_Test8TestBodyEv
FN:217,_ZN34Command_Test_handle_pasv_test_TestC2Ev
FNDA:1,_ZN34Command_Test_handle_pasv_test_TestC2Ev
FN:217,_ZN34Command_Test_handle_pasv_test_TestD0Ev
FNDA:1,_ZN34Command_Test_handle_pasv_test_TestD0Ev
FN:217,_ZN34Command_Test_handle_pasv_test_TestD2Ev
FNDA:1,_ZN34Command_Test_handle_pasv_test_TestD2Ev
FN:226,_ZN33Command_Test_handle_pwd_test_TestD0Ev
FNDA:1,_ZN33Command_Test_handle_pwd_test_TestD0Ev
FN:226,_ZN33Command_Test_handle_pwd_test_TestD2Ev
FNDA:1,_ZN33Command_Test_handle_pwd_test_TestD2Ev
FN:226,_ZN33Command_Test_handle_pwd_test_TestC2Ev
FNDA:1,_ZN33Command_Test_handle_pwd_test_TestC2Ev
FN:226,_ZN33Command_Test_handle_pwd_test_Test8TestBodyEv
FNDA:1,_ZN33Command_Test_handle_pwd_test_Test8TestBodyEv
FN:234,_ZN33Command_Test_handle_cwd_test_TestD0Ev
FNDA:1,_ZN33Command_Test_handle_cwd_test_TestD0Ev
FN:234,_ZN33Command_Test_handle_cwd_test_TestC2Ev
FNDA:1,_ZN33Command_Test_handle_cwd_test_TestC2Ev
FN:234,_ZN33Command_Test_handle_cwd_test_Test8TestBodyEv
FNDA:1,_ZN33Command_Test_handle_cwd_test_Test8TestBodyEv
FN:234,_ZN33Command_Test_handle_cwd_test_TestD2Ev
FNDA:1,_ZN33Command_Test_handle_cwd_test_TestD2Ev
FN:247,_ZN41Command_Test_handle_mkd_and_rmd_test_Test8TestBodyEv
FNDA:1,_ZN41Command_Test_handle_mkd_and_rmd_test_Test8TestBodyEv
FN:247,_ZN41Command_Test_handle_mkd_and_rmd_test_TestD0Ev
FNDA:1,_ZN41Command_Test_handle_mkd_and_rmd_test_TestD0Ev
FN:247,_ZN41Command_Test_handle_mkd_and_rmd_test_TestC2Ev
FNDA:1,_ZN41Command_Test_handle_mkd_and_rmd_test_TestC2Ev
FN:247,_ZN41Command_Test_handle_mkd_and_rmd_test_TestD2Ev
FNDA:1,_ZN41Command_Test_handle_mkd_and_rmd_test_TestD2Ev
FN:259,_ZN34Command_Test_handle_size_test_Test8TestBodyEv
FNDA:1,_ZN34Command_Test_handle_size_test_Test8TestBodyEv
FN:259,_ZN34Command_Test_handle_size_test_TestC2Ev
FNDA:1,_ZN34Command_Test_handle_size_test_TestC2Ev
FN:259,_ZN34Command_Test_handle_size_test_TestD0Ev
FNDA:1,_ZN34Command_Test_handle_size_test_TestD0Ev
FN:259,_ZN34Command_Test_handle_size_test_TestD2Ev
FNDA:1,_ZN34Command_Test_handle_size_test_TestD2Ev
FN:267,_ZN34Command_Test_handle_type_test_TestD2Ev
FNDA:1,_ZN34Command_Test_handle_type_test_TestD2Ev
FN:267,_ZN34Command_Test_handle_type_test_TestC2Ev
FNDA:1,_ZN34Command_Test_handle_type_test_TestC2Ev
FN:267,_ZN34Command_Test_handle_type_test_TestD0Ev
FNDA:1,_ZN34Command_Test_handle_type_test_TestD0Ev
FN:267,_ZN34Command_Test_handle_type_test_Test8TestBodyEv
FNDA:1,_ZN34Command_Test_handle_type_test_Test8TestBodyEv
FN:275,_ZN40Command_Test_handle_retr_test_error_TestD0Ev
FNDA:1,_ZN40Command_Test_handle_retr_test_error_TestD0Ev
FN:275,_ZN40Command_Test_handle_retr_test_error_TestC2Ev
FNDA:1,_ZN40Command_Test_handle_retr_test_error_TestC2Ev
FN:275,_ZN40Command_Test_handle_retr_test_error_TestD2Ev
FNDA:1,_ZN40Command_Test_handle_retr_test_error_TestD2Ev
FN:275,_ZN40Command_Test_handle_retr_test_error_Test8TestBodyEv
FNDA:1,_ZN40Command_Test_handle_retr_test_error_Test8TestBodyEv
FN:283,_ZN40Command_Test_handle_stor_test_error_TestC2Ev
FNDA:1,_ZN40Command_Test_handle_stor_test_error_TestC2Ev
FN:283,_ZN40Command_Test_handle_stor_test_error_TestD0Ev
FNDA:1,_ZN40Command_Test_handle_stor_test_error_TestD0Ev
FN:283,_ZN40Command_Test_handle_stor_test_error_TestD2Ev
FNDA:1,_ZN40Command_Test_handle_stor_test_error_TestD2Ev
FN:283,_ZN40Command_Test_handle_stor_test_error_Test8TestBodyEv
FNDA:1,_ZN40Command_Test_handle_stor_test_error_Test8TestBodyEv
FN:291,_ZN34Command_Test_handle_port_test_TestD2Ev
FNDA:1,_ZN34Command_Test_handle_port_test_TestD2Ev
FN:291,_ZN34Command_Test_handle_port_test_TestC2Ev
FNDA:1,_ZN34Command_Test_handle_port_test_TestC2Ev
FN:291,_ZN34Command_Test_handle_port_test_TestD0Ev
FNDA:1,_ZN34Command_Test_handle_port_test_TestD0Ev
FN:291,_ZN34Command_Test_handle_port_test_Test8TestBodyEv
FNDA:1,_ZN34Command_Test_handle_port_test_Test8TestBodyEv
DA:16,26
DA:17,26
DA:18,26
DA:21,26
DA:22,26
DA:23,26
DA:24,26
DA:25,26
DA:26,26
DA:27,26
DA:28,26
DA:29,26
DA:31,27
DA:32,27
DA:33,27
DA:34,27
DA:35,27
DA:36,27
DA:37,26
DA:40,26
DA:41,26
DA:43,26
DA:46,26
DA:47,26
DA:50,1
DA:50,1
DA:50,1
DA:50,1
DA:52,1
DA:53,1
DA:54,1
DA:55,1
DA:56,1
DA:57,1
DA:58,1
DA:59,1
DA:60,1
DA:62,1
DA:62,1
DA:62,1
DA:62,1
DA:64,1
DA:65,1
DA:66,1
DA:67,1
DA:68,1
DA:69,1
DA:70,1
DA:71,1
DA:73,1
DA:73,1
DA:73,1
DA:73,1
DA:75,1
DA:76,1
DA:77,1
DA:78,1
DA:79,1
DA:80,1
DA:82,1
DA:82,1
DA:82,1
DA:82,1
DA:84,1
DA:85,1
DA:86,1
DA:87,1
DA:88,1
DA:90,1
DA:90,1
DA:90,1
DA:90,1
DA:92,1
DA:93,1
DA:94,1
DA:95,1
DA:96,1
DA:98,1
DA:98,1
DA:98,1
DA:98,1
DA:100,1
DA:101,1
DA:102,1
DA:103,1
DA:104,1
DA:105,1
DA:106,1
DA:108,1
DA:108,1
DA:108,1
DA:108,1
DA:110,1
DA:111,1
DA:112,1
DA:113,2
DA:114,1
DA:115,1
DA:116,1
DA:118,1
DA:118,1
DA:118,1
DA:118,1
DA:120,1
DA:122,1
DA:123,1
DA:124,1
DA:125,1
DA:126,1
DA:127,1
DA:129,1
DA:130,1
DA:131,1
DA:132,2
DA:133,1
DA:134,1
DA:135,1
DA:137,1
DA:137,1
DA:137,1
DA:137,1
DA:139,1
DA:140,1
DA:141,1
DA:142,1
DA:143,1
DA:144,1
DA:145,1
DA:147,1
DA:147,1
DA:147,1
DA:147,1
DA:149,1
DA:150,1
DA:151,1
DA:152,1
DA:153,1
DA:155,1
DA:155,1
DA:155,1
DA:155,1
DA:157,1
DA:158,1
DA:159,1
DA:160,1
DA:161,1
DA:163,1
DA:163,1
DA:163,1
DA:163,1
DA:165,1
DA:166,1
DA:167,1
DA:168,1
DA:169,1
DA:170,1
DA:171,1
DA:172,1
DA:174,1
DA:174,1
DA:174,1
DA:174,1
DA:176,1
DA:177,1
DA:178,1
DA:179,1
DA:180,1
DA:181,1
DA:182,1
DA:183,1
DA:185,1
DA:185,1
DA:185,1
DA:185,1
DA:187,1
DA:188,1
DA:189,1
DA:190,1
DA:191,1
DA:193,1
DA:193,1
DA:193,1
DA:193,1
DA:195,1
DA:196,1
DA:197,1
DA:198,1
DA:199,1
DA:201,1
DA:201,1
DA:201,1
DA:201,1
DA:203,1
DA:204,1
DA:205,1
DA:206,1
DA:207,1
DA:209,1
DA:209,1
DA:209,1
DA:209,1
DA:211,1
DA:212,1
DA:213,1
DA:214,1
DA:215,1
DA:217,1
DA:217,1
DA:217,1
DA:217,1
DA:219,1
DA:220,1
DA:221,1
DA:222,1
DA:223,1
DA:224,1
DA:226,1
DA:226,1
DA:226,1
DA:226,1
DA:228,1
DA:229,1
DA:230,1
DA:231,1
DA:232,1
DA:234,1
DA:234,1
DA:234,1
DA:234,1
DA:236,1
DA:237,1
DA:238,1
DA:239,1
DA:241,1
DA:242,1
DA:243,2
DA:244,1
DA:245,1
DA:247,1
DA:247,1
DA:247,1
DA:247,1
DA:249,1
DA:250,1
DA:251,1
DA:252,1
DA:254,1
DA:255,1
DA:256,1
DA:257,1
DA:259,1
DA:259,1
DA:259,1
DA:259,1
DA:261,1
DA:262,1
DA:263,1
DA:264,1
DA:265,1
DA:267,1
DA:267,1
DA:267,1
DA:267,1
DA:269,1
DA:270,1
DA:271,1
DA:272,1
DA:273,1
DA:275,1
DA:275,1
DA:275,1
DA:275,1
DA:277,1
DA:278,1
DA:279,1
DA:280,1
DA:281,1
DA:283,1
DA:283,1
DA:283,1
DA:283,1
DA:285,1
DA:286,1
DA:287,1
DA:288,1
DA:289,1
DA:291,1
DA:291,1
DA:291,1
DA:291,1
DA:293,1
DA:294,1
DA:295,1
DA:296,1
DA:297,1
end_of_record
SF:/usr/include/c++/11/new
FN:58,_ZNSt9bad_allocC2Ev
FNDA:0,_ZNSt9bad_allocC2Ev
DA:58,0
end_of_record
SF:/usr/include/c++/11/bits/alloc_traits.h
FN:495,_ZNSt16allocator_traitsISaISt10_List_nodeINSt7__cxx1112basic_stringIcSt11char_traitsIcESaIcEEEEEE10deallocateERS8_PS7_m
FNDA:0,_ZNSt16allocator_traitsISaISt10_List_nodeINSt7__cxx1112basic_stringIcSt11char_traitsIcESaIcEEEEEE10deallocateERS8_PS7_m
FN:531,_ZNSt16allocator_traitsISaISt10_List_nodeINSt7__cxx1112basic_stringIcSt11char_traitsIcESaIcEEEEEE7destroyIS6_EEvRS8_PT_
FNDA:0,_ZNSt16allocator_traitsISaISt10_List_nodeINSt7__cxx1112basic_stringIcSt11char_traitsIcESaIcEEEEEE7destroyIS6_EEvRS8_PT_
FN:562,_ZNSt16allocator_traitsISaIcEE37select_on_container_copy_constructionERKS0_
FNDA:0,_ZNSt16allocator_traitsISaIcEE37select_on_container_copy_constructionERKS0_
DA:495,0
DA:496,0
DA:531,0
DA:535,0
DA:539,0
DA:562,0
DA:563,0
end_of_record
SF:/usr/include/ace/Svc_Handler.cpp
FN:32,_ZN15ACE_Svc_HandlerI15ACE_SOCK_Stream14ACE_NULL_SYNCHEnwEm
FNDA:26,_ZN15ACE_Svc_HandlerI15ACE_SOCK_Stream14ACE_NULL_SYNCHEnwEm
FN:108,_ZN15ACE_Svc_HandlerI15ACE_SOCK_Stream14ACE_NULL_SYNCHEdlEPv
FNDA:0,_ZN15ACE_Svc_HandlerI15ACE_SOCK_Stream14ACE_NULL_SYNCHEdlEPv
DA:32,26
DA:36,26
DA:38,26
DA:43,0
DA:45,0
DA:51,26
DA:53,26
DA:108,0
DA:114,0
DA:115,0
end_of_record
SF:/usr/include/ace/Dynamic.inl
FN:11,_ZN11ACE_Dynamic3setEv
FNDA:26,_ZN11ACE_Dynamic3setEv
DA:11,26
DA:14,26
DA:15,26
end_of_record
SF:/usr/include/ace/Base_Thread_Adapter.h
FN:54,_ZN24ACE_OS_Thread_DescriptorD0Ev
FNDA:0,_ZN24ACE_OS_Thread_DescriptorD0Ev
FN:54,_ZN24ACE_OS_Thread_DescriptorD2Ev
FNDA:0,_ZN24ACE_OS_Thread_DescriptorD2Ev
DA:54,0
DA:54,0
end_of_record
SF:/usr/include/c++/11/bits/stl_iterator_base_funcs.h
FN:98,_ZSt10__distanceIPcENSt15iterator_traitsIT_E15difference_typeES2_S2_St26random_access_iterator_tag
FNDA:0,_ZSt10__distanceIPcENSt15iterator_traitsIT_E15difference_typeES2_S2_St26random_access_iterator_tag
FN:98,_ZSt10__distanceIPKcENSt15iterator_traitsIT_E15difference_typeES3_S3_St26random_access_iterator_tag
FNDA:0,_ZSt10__distanceIPKcENSt15iterator_traitsIT_E15difference_typeES3_S3_St26random_access_iterator_tag
FN:138,_ZSt8distanceIPcENSt15iterator_traitsIT_E15difference_typeES2_S2_
FNDA:0,_ZSt8distanceIPcENSt15iterator_traitsIT_E15difference_typeES2_S2_
FN:138,_ZSt8distanceIPKcENSt15iterator_traitsIT_E15difference_typeES3_S3_
FNDA:0,_ZSt8distanceIPKcENSt15iterator_traitsIT_E15difference_typeES3_S3_
DA:98,0
DA:104,0
DA:98,0
DA:104,0
DA:138,0
DA:141,0
DA:142,0
DA:138,0
DA:141,0
DA:142,0
end_of_record
SF:/usr/include/c++/11/ext/new_allocator.h
FN:79,_ZN9__gnu_cxx13new_allocatorISt10_List_nodeINSt7__cxx1112basic_stringIcSt11char_traitsIcESaIcEEEEEC2Ev
FNDA:0,_ZN9__gnu_cxx13new_allocatorISt10_List_nodeINSt7__cxx1112basic_stringIcSt11char_traitsIcESaIcEEEEEC2Ev
FN:79,_ZN9__gnu_cxx13new_allocatorIcEC2Ev
FNDA:0,_ZN9__gnu_cxx13new_allocatorIcEC2Ev
FN:82,_ZN9__gnu_cxx13new_allocatorIcEC2ERKS1_
FNDA:0,_ZN9__gnu_cxx13new_allocatorIcEC2ERKS1_
FN:89,_ZN9__gnu_cxx13new_allocatorISt10_List_nodeINSt7__cxx1112basic_stringIcSt11char_traitsIcESaIcEEEEED2Ev
FNDA:0,_ZN9__gnu_cxx13new_allocatorISt10_List_nodeINSt7__cxx1112basic_stringIcSt11char_traitsIcESaIcEEEEED2Ev
FN:89,_ZN9__gnu_cxx13new_allocatorIcED2Ev
FNDA:0,_ZN9__gnu_cxx13new_allocatorIcED2Ev
FN:132,_ZN9__gnu_cxx13new_allocatorISt10_List_nodeINSt7__cxx1112basic_stringIcSt11char_traitsIcESaIcEEEEE10deallocateEPS8_m
FNDA:0,_ZN9__gnu_cxx13new_allocatorISt10_List_nodeINSt7__cxx1112basic_stringIcSt11char_traitsIcESaIcEEEEE10deallocateEPS8_m
FN:166,_ZN9__gnu_cxx13new_allocatorISt10_List_nodeINSt7__cxx1112basic_stringIcSt11char_traitsIcESaIcEEEEE7destroyIS7_EEvPT_
FNDA:0,_ZN9__gnu_cxx13new_allocatorISt10_List_nodeINSt7__cxx1112basic_stringIcSt11char_traitsIcESaIcEEEEE7destroyIS7_EEvPT_
DA:79,0
DA:79,0
DA:82,0
DA:89,0
DA:89,0
DA:132,0
DA:145,0
DA:166,0
DA:168,0
end_of_record
SF:/usr/include/gtest/gtest-printers.h
FN:212,_ZN7testing8internal52internal_stream_operator_without_lexical_name_lookup13StreamPrinter10PrintValueIivRSoEEvRKT_PSo
FNDA:0,_ZN7testing8internal52internal_stream_operator_without_lexical_name_lookup13StreamPrinter10PrintValueIivRSoEEvRKT_PSo
FN:306,_ZN7testing8internal17PrintWithFallbackIiEEvRKT_PSo
FNDA:0,_ZN7testing8internal17PrintWithFallbackIiEEvRKT_PSo
FN:333,_ZN7testing8internal19FormatForComparisonIiiE6FormatB5cxx11ERKi
FNDA:0,_ZN7testing8internal19FormatForComparisonIiiE6FormatB5cxx11ERKi
FN:413,_ZN7testing8internal33FormatForComparisonFailureMessageIiiEENSt7__cxx1112basic_stringIcSt11char_traitsIcESaIcEEERKT_RKT0_
FNDA:0,_ZN7testing8internal33FormatForComparisonFailureMessageIiiEENSt7__cxx1112basic_stringIcSt11char_traitsIcESaIcEEERKT_RKT0_
FN:440,_ZN7testing8internal7PrintToIiEEvRKT_PSo
FNDA:0,_ZN7testing8internal7PrintToIiEEvRKT_PSo
FN:682,_ZN7testing8internal16UniversalPrinterIiE5PrintERKiPSo
FNDA:0,_ZN7testing8internal16UniversalPrinterIiE5PrintERKiPSo
FN:864,_ZN7testing8internal21UniversalTersePrinterIiE5PrintERKiPSo
FNDA:0,_ZN7testing8internal21UniversalTersePrinterIiE5PrintERKiPSo
FN:976,_ZN7testing8internal14UniversalPrintIiEEvRKT_PSo
FNDA:0,_ZN7testing8internal14UniversalPrintIiEEvRKT_PSo
FN:1016,_ZN7testing13PrintToStringIiEENSt7__cxx1112basic_stringIcSt11char_traitsIcESaIcEEERKT_
FNDA:0,_ZN7testing13PrintToStringIiEENSt7__cxx1112basic_stringIcSt11char_traitsIcESaIcEEERKT_
DA:212,0
DA:215,0
DA:216,0
DA:306,0
DA:312,0
DA:313,0
DA:333,0
DA:334,0
DA:413,0
DA:415,0
DA:440,0
DA:441,0
DA:442,0
DA:682,0
DA:691,0
DA:692,0
DA:864,0
DA:865,0
DA:866,0
DA:976,0
DA:980,0
DA:981,0
DA:1016,0
DA:1017,0
DA:1018,0
DA:1019,0
DA:1020,0
end_of_record
SF:/usr/include/gtest/internal/gtest-port.h
FN:977,_ZN7testing8internal8GTestLog9GetStreamEv
FNDA:0,_ZN7testing8internal8GTestLog9GetStreamEv
DA:977,0
end_of_record
SF:/usr/include/gtest/internal/gtest-internal.h
FN:435,_ZN7testing8internal9GetTypeIdI12Command_TestEEPKvv
FNDA:26,_ZN7testing8internal9GetTypeIdI12Command_TestEEPKvv
FN:454,_ZN7testing8internal15TestFactoryBaseD2Ev
FNDA:0,_ZN7testing8internal15TestFactoryBaseD2Ev
FN:454,_ZN7testing8internal15TestFactoryBaseD0Ev
FNDA:0,_ZN7testing8internal15TestFactoryBaseD0Ev
FN:461,_ZN7testing8internal15TestFactoryBaseC2Ev
FNDA:0,_ZN7testing8internal15TestFactoryBaseC2Ev
FN:472,_ZN7testing8internal15TestFactoryImplI34Command_Test_handle_pasv_test_TestE10CreateTestEv
FNDA:1,_ZN7testing8internal15TestFactoryImplI34Command_Test_handle_pasv_test_TestE10CreateTestEv
FN:472,_ZN7testing8internal15TestFactoryImplI34Command_Test_handle_port_test_TestE10CreateTestEv
FNDA:1,_ZN7testing8internal15TestFactoryImplI34Command_Test_handle_port_test_TestE10CreateTestEv
FN:472,_ZN7testing8internal15TestFactoryImplI40Command_Test_handle_stor_test_error_TestE10CreateTestEv
FNDA:1,_ZN7testing8internal15TestFactoryImplI40Command_Test_handle_stor_test_error_TestE10CreateTestEv
FN:472,_ZN7testing8internal15TestFactoryImplI40Command_Test_handle_retr_test_error_TestE10CreateTestEv
FNDA:1,_ZN7testing8internal15TestFactoryImplI40Command_Test_handle_retr_test_error_TestE10CreateTestEv
FN:472,_ZN7testing8internal15TestFactoryImplI34Command_Test_handle_type_test_TestE10CreateTestEv
FNDA:1,_ZN7testing8internal15TestFactoryImplI34Command_Test_handle_type_test_TestE10CreateTestEv
FN:472,_ZN7testing8internal15TestFactoryImplI34Command_Test_handle_size_test_TestE10CreateTestEv
FNDA:1,_ZN7testing8internal15TestFactoryImplI34Command_Test_handle_size_test_TestE10CreateTestEv
FN:472,_ZN7testing8internal15TestFactoryImplI41Command_Test_handle_mkd_and_rmd_test_TestE10CreateTestEv
FNDA:1,_ZN7testing8internal15TestFactoryImplI41Command_Test_handle_mkd_and_rmd_test_TestE10CreateTestEv
FN:472,_ZN7testing8internal15TestFactoryImplI33Command_Test_handle_cwd_test_TestE10CreateTestEv
FNDA:1,_ZN7testing8internal15TestFactoryImplI33Command_Test_handle_cwd_test_TestE10CreateTestEv
FN:472,_ZN7testing8internal15TestFactoryImplI33Command_Test_handle_pwd_test_TestE10CreateTestEv
FNDA:1,_ZN7testing8internal15TestFactoryImplI33Command_Test_handle_pwd_test_TestE10CreateTestEv
FN:472,_ZN7testing8internal15TestFactoryImplI41Command_Test_parseline_test_cmd_para_TestE10CreateTestEv
FNDA:1,_ZN7testing8internal15TestFactoryImplI41Command_Test_parseline_test_cmd_para_TestE10CreateTestEv
FN:472,_ZN7testing8internal15TestFactoryImplI34Command_Test_handle_feat_test_TestE10CreateTestEv
FNDA:1,_ZN7testing8internal15TestFactoryImplI34Command_Test_handle_feat_test_TestE10CreateTestEv
FN:472,_ZN7testing8internal15TestFactoryImplI42Command_Test_get_real_path_test_user1_TestE10CreateTestEv
FNDA:1,_ZN7testing8internal15TestFactoryImplI42Command_Test_get_real_path_test_user1_TestE10CreateTestEv
FN:472,_ZN7testing8internal15TestFactoryImplI36Command_Test_parseline_test_cmd_TestE10CreateTestEv
FNDA:1,_ZN7testing8internal15TestFactoryImplI36Command_Test_parseline_test_cmd_TestE10CreateTestEv
FN:472,_ZN7testing8internal15TestFactoryImplI38Command_Test_parseline_test_error_TestE10CreateTestEv
FNDA:1,_ZN7testing8internal15TestFactoryImplI38Command_Test_parseline_test_error_TestE10CreateTestEv
FN:472,_ZN7testing8internal15TestFactoryImplI34Command_Test_process_cmd_test_TestE10CreateTestEv
FNDA:1,_ZN7testing8internal15TestFactoryImplI34Command_Test_process_cmd_test_TestE10CreateTestEv
FN:472,_ZN7testing8internal15TestFactoryImplI40Command_Test_process_cmd_test_error_TestE10CreateTestEv
FNDA:1,_ZN7testing8internal15TestFactoryImplI40Command_Test_process_cmd_test_error_TestE10CreateTestEv
FN:472,_ZN7testing8internal15TestFactoryImplI49Command_Test_send_and_get_reponse_local_test_TestE10CreateTestEv
FNDA:1,_ZN7testing8internal15TestFactoryImplI49Command_Test_send_and_get_reponse_local_test_TestE10CreateTestEv
FN:472,_ZN7testing8internal15TestFactoryImplI34Command_Test_handle_eprt_test_TestE10CreateTestEv
FNDA:1,_ZN7testing8internal15TestFactoryImplI34Command_Test_handle_eprt_test_TestE10CreateTestEv
FN:472,_ZN7testing8internal15TestFactoryImplI42Command_Test_get_real_path_test_user2_TestE10CreateTestEv
FNDA:1,_ZN7testing8internal15TestFactoryImplI42Command_Test_get_real_path_test_user2_TestE10CreateTestEv
FN:472,_ZN7testing8internal15TestFactoryImplI31Command_Test_list_dir_test_TestE10CreateTestEv
FNDA:1,_ZN7testing8internal15TestFactoryImplI31Command_Test_list_dir_test_TestE10CreateTestEv
FN:472,_ZN7testing8internal15TestFactoryImplI34Command_Test_handle_user_test_TestE10CreateTestEv
FNDA:1,_ZN7testing8internal15TestFactoryImplI34Command_Test_handle_user_test_TestE10CreateTestEv
FN:472,_ZN7testing8internal15TestFactoryImplI40Command_Test_handle_user_test_error_TestE10CreateTestEv
FNDA:1,_ZN7testing8internal15TestFactoryImplI40Command_Test_handle_user_test_error_TestE10CreateTestEv
FN:472,_ZN7testing8internal15TestFactoryImplI34Command_Test_handle_pass_test_TestE10CreateTestEv
FNDA:1,_ZN7testing8internal15TestFactoryImplI34Command_Test_handle_pass_test_TestE10CreateTestEv
FN:472,_ZN7testing8internal15TestFactoryImplI40Command_Test_handle_pass_test_error_TestE10CreateTestEv
FNDA:1,_ZN7testing8internal15TestFactoryImplI40Command_Test_handle_pass_test_error_TestE10CreateTestEv
FN:472,_ZN7testing8internal15TestFactoryImplI34Command_Test_handle_syst_test_TestE10CreateTestEv
FNDA:1,_ZN7testing8internal15TestFactoryImplI34Command_Test_handle_syst_test_TestE10CreateTestEv
FN:472,_ZN7testing8internal15TestFactoryImplI34Command_Test_handle_epsv_test_TestE10CreateTestEv
FNDA:1,_ZN7testing8internal15TestFactoryImplI34Command_Test_handle_epsv_test_TestE10CreateTestEv
FN:493,_ZN7testing8internal12CodeLocationC2ERKNSt7__cxx1112basic_stringIcSt11char_traitsIcESaIcEEEi
FNDA:0,_ZN7testing8internal12CodeLocationC2ERKNSt7__cxx1112basic_stringIcSt11char_traitsIcESaIcEEEi
FN:506,_ZN7testing8internal19GetNotDefaultOrNullEPFvvES2_
FNDA:0,_ZN7testing8internal19GetNotDefaultOrNullEPFvvES2_
FN:521,_ZN7testing8internal16SuiteApiResolverI12Command_TestE19GetSetUpCaseOrSuiteEPKci
FNDA:26,_ZN7testing8internal16SuiteApiResolverI12Command_TestE19GetSetUpCaseOrSuiteEPKci
FN:542,_ZN7testing8internal16SuiteApiResolverI12Command_TestE22GetTearDownCaseOrSuiteEPKci
FNDA:26,_ZN7testing8internal16SuiteApiResolverI12Command_TestE22GetTearDownCaseOrSuiteEPKci
DA:435,26
DA:440,26
DA:454,0
DA:454,0
DA:461,0
DA:472,1
DA:472,1
DA:472,1
DA:472,1
DA:472,1
DA:472,1
DA:472,1
DA:472,1
DA:472,1
DA:472,1
DA:472,1
DA:472,1
DA:472,1
DA:472,1
DA:472,1
DA:472,1
DA:472,1
DA:472,1
DA:472,1
DA:472,1
DA:472,1
DA:472,1
DA:472,1
DA:472,1
DA:472,1
DA:472,1
DA:493,0
DA:494,0
DA:506,0
DA:508,0
DA:521,26
DA:525,26
DA:527,26
DA:529,26
DA:532,0
DA:534,26
DA:542,26
DA:546,26
DA:548,26
DA:550,26
DA:553,0
DA:555,26
end_of_record
SF:/usr/include/c++/11/bits/list.tcc
FN:66,_ZNSt7__cxx1110_List_baseINS_12basic_stringIcSt11char_traitsIcESaIcEEESaIS5_EE8_M_clearEv
FNDA:0,_ZNSt7__cxx1110_List_baseINS_12basic_stringIcSt11char_traitsIcESaIcEEESaIS5_EE8_M_clearEv
DA:66,0
DA:70,0
DA:71,0
DA:73,0
DA:74,0
DA:75,0
DA:77,0
DA:81,0
DA:83,0
end_of_record
SF:/usr/include/c++/11/bits/stl_iterator_base_types.h
FN:238,_ZSt19__iterator_categoryIPcENSt15iterator_traitsIT_E17iterator_categoryERKS2_
FNDA:0,_ZSt19__iterator_categoryIPcENSt15iterator_traitsIT_E17iterator_categoryERKS2_
FN:238,_ZSt19__iterator_categoryIPKcENSt15iterator_traitsIT_E17iterator_categoryERKS3_
FNDA:0,_ZSt19__iterator_categoryIPKcENSt15iterator_traitsIT_E17iterator_categoryERKS3_
DA:238,0
DA:239,0
DA:238,0
DA:239,0
end_of_record
SF:/usr/include/gtest/gtest.h
FN:305,_ZN7testing15AssertionResultC2IbEERKT_PNSt9enable_ifIXntsrSt14is_convertibleIS2_S0_E5valueEvE4typeE
FNDA:0,_ZN7testing15AssertionResultC2IbEERKT_PNSt9enable_ifIXntsrSt14is_convertibleIS2_S0_E5valueEvE4typeE
FN:324,_ZNK7testing15AssertionResultcvbEv
FNDA:0,_ZNK7testing15AssertionResultcvbEv
FN:333,_ZNK7testing15AssertionResult7messageEv
FNDA:0,_ZNK7testing15AssertionResult7messageEv
FN:337,_ZNK7testing15AssertionResult15failure_messageEv
FNDA:0,_ZNK7testing15AssertionResult15failure_messageEv
FN:427,_ZN7testing4Test14SetUpTestSuiteEv
FNDA:0,_ZN7testing4Test14SetUpTestSuiteEv
FN:435,_ZN7testing4Test17TearDownTestSuiteEv
FNDA:0,_ZN7testing4Test17TearDownTestSuiteEv
FN:440,_ZN7testing4Test16TearDownTestCaseEv
FNDA:0,_ZN7testing4Test16TearDownTestCaseEv
FN:441,_ZN7testing4Test13SetUpTestCaseEv
FNDA:0,_ZN7testing4Test13SetUpTestCaseEv
FN:522,_ZN7testing4Test5SetupEv
FNDA:0,_ZN7testing4Test5SetupEv
FN:1522,_ZN7testing8internal18CmpHelperEQFailureIiiEENS_15AssertionResultEPKcS4_RKT_RKT0_
FNDA:0,_ZN7testing8internal18CmpHelperEQFailureIiiEENS_15AssertionResultEPKcS4_RKT_RKT0_
FN:1541,_ZN7testing8internal11CmpHelperEQIiiEENS_15AssertionResultEPKcS4_RKT_RKT0_
FNDA:0,_ZN7testing8internal11CmpHelperEQIiiEENS_15AssertionResultEPKcS4_RKT_RKT0_
FN:1561,_ZN7testing8internal8EqHelper7CompareIiiLPv0EEENS_15AssertionResultEPKcS6_RKT_RKT0_
FNDA:0,_ZN7testing8internal8EqHelper7CompareIiiLPv0EEENS_15AssertionResultEPKcS6_RKT_RKT0_
DA:305,0
DA:311,0
DA:324,0
DA:333,0
DA:334,0
DA:337,0
DA:427,0
DA:435,0
DA:440,0
DA:441,0
DA:522,0
DA:1522,0
DA:1529,0
DA:1541,0
DA:1545,0
DA:1546,0
DA:1549,0
DA:1561,0
DA:1564,0
end_of_record
SF:/usr/include/c++/11/bits/unique_ptr.h
FN:79,_ZNKSt14default_deleteINSt7__cxx1118basic_stringstreamIcSt11char_traitsIcESaIcEEEEclEPS5_
FNDA:0,_ZNKSt14default_deleteINSt7__cxx1118basic_stringstreamIcSt11char_traitsIcESaIcEEEEclEPS5_
FN:79,_ZNKSt14default_deleteIN11MyFtpServer15Command_HandlerEEclEPS1_
FNDA:26,_ZNKSt14default_deleteIN11MyFtpServer15Command_HandlerEEclEPS1_
FN:79,_ZNKSt14default_deleteINSt7__cxx1112basic_stringIcSt11char_traitsIcESaIcEEEEclEPS5_
FNDA:0,_ZNKSt14default_deleteINSt7__cxx1112basic_stringIcSt11char_traitsIcESaIcEEEEclEPS5_
FN:154,_ZNSt15__uniq_ptr_implIN11MyFtpServer15Command_HandlerESt14default_deleteIS1_EEC2Ev
FNDA:26,_ZNSt15__uniq_ptr_implIN11MyFtpServer15Command_HandlerESt14default_deleteIS1_EEC2Ev
FN:154,_ZNSt15__uniq_ptr_implINSt7__cxx1112basic_stringIcSt11char_traitsIcESaIcEEESt14default_deleteIS5_EEC2Ev
FNDA:0,_ZNSt15__uniq_ptr_implINSt7__cxx1112basic_stringIcSt11char_traitsIcESaIcEEESt14default_deleteIS5_EEC2Ev
FN:155,_ZNSt15__uniq_ptr_implIN11MyFtpServer15Command_HandlerESt14default_deleteIS1_EEC2EPS1_
FNDA:26,_ZNSt15__uniq_ptr_implIN11MyFtpServer15Command_HandlerESt14default_deleteIS1_EEC2EPS1_
FN:165,_ZNSt15__uniq_ptr_implIN11MyFtpServer15Command_HandlerESt14default_deleteIS1_EEaSEOS4_
FNDA:26,_ZNSt15__uniq_ptr_implIN11MyFtpServer15Command_HandlerESt14default_deleteIS1_EEaSEOS4_
FN:172,_ZNSt15__uniq_ptr_implINSt7__cxx1118basic_stringstreamIcSt11char_traitsIcESaIcEEESt14default_deleteIS5_EE6_M_ptrEv
FNDA:0,_ZNSt15__uniq_ptr_implINSt7__cxx1118basic_stringstreamIcSt11char_traitsIcESaIcEEESt14default_deleteIS5_EE6_M_ptrEv
FN:172,_ZNSt15__uniq_ptr_implINSt7__cxx1112basic_stringIcSt11char_traitsIcESaIcEEESt14default_deleteIS5_EE6_M_ptrEv
FNDA:0,_ZNSt15__uniq_ptr_implINSt7__cxx1112basic_stringIcSt11char_traitsIcESaIcEEESt14default_deleteIS5_EE6_M_ptrEv
FN:172,_ZNSt15__uniq_ptr_implIN11MyFtpServer15Command_HandlerESt14default_deleteIS1_EE6_M_ptrEv
FNDA:182,_ZNSt15__uniq_ptr_implIN11MyFtpServer15Command_HandlerESt14default_deleteIS1_EE6_M_ptrEv
FN:173,_ZNKSt15__uniq_ptr_implIN11MyFtpServer15Command_HandlerESt14default_deleteIS1_EE6_M_ptrEv
FNDA:192,_ZNKSt15__uniq_ptr_implIN11MyFtpServer15Command_HandlerESt14default_deleteIS1_EE6_M_ptrEv
FN:173,_ZNKSt15__uniq_ptr_implINSt7__cxx1112basic_stringIcSt11char_traitsIcESaIcEEESt14default_deleteIS5_EE6_M_ptrEv
FNDA:0,_ZNKSt15__uniq_ptr_implINSt7__cxx1112basic_stringIcSt11char_traitsIcESaIcEEESt14default_deleteIS5_EE6_M_ptrEv
FN:174,_ZNSt15__uniq_ptr_implINSt7__cxx1112basic_stringIcSt11char_traitsIcESaIcEEESt14default_deleteIS5_EE10_M_deleterEv
FNDA:0,_ZNSt15__uniq_ptr_implINSt7__cxx1112basic_stringIcSt11char_traitsIcESaIcEEESt14default_deleteIS5_EE10_M_deleterEv
FN:174,_ZNSt15__uniq_ptr_implIN11MyFtpServer15Command_HandlerESt14default_deleteIS1_EE10_M_deleterEv
FNDA:78,_ZNSt15__uniq_ptr_implIN11MyFtpServer15Command_HandlerESt14default_deleteIS1_EE10_M_deleterEv
FN:174,_ZNSt15__uniq_ptr_implINSt7__cxx1118basic_stringstreamIcSt11char_traitsIcESaIcEEESt14default_deleteIS5_EE10_M_deleterEv
FNDA:0,_ZNSt15__uniq_ptr_implINSt7__cxx1118basic_stringstreamIcSt11char_traitsIcESaIcEEESt14default_deleteIS5_EE10_M_deleterEv
FN:177,_ZNSt15__uniq_ptr_implIN11MyFtpServer15Command_HandlerESt14default_deleteIS1_EE5resetEPS1_
FNDA:26,_ZNSt15__uniq_ptr_implIN11MyFtpServer15Command_HandlerESt14default_deleteIS1_EE5resetEPS1_
FN:185,_ZNSt15__uniq_ptr_implIN11MyFtpServer15Command_HandlerESt14default_deleteIS1_EE7releaseEv
FNDA:26,_ZNSt15__uniq_ptr_implIN11MyFtpServer15Command_HandlerESt14default_deleteIS1_EE7releaseEv
FN:212,_ZNSt15__uniq_ptr_dataIN11MyFtpServer15Command_HandlerESt14default_deleteIS1_ELb1ELb1EEaSEOS4_
FNDA:26,_ZNSt15__uniq_ptr_dataIN11MyFtpServer15Command_HandlerESt14default_deleteIS1_ELb1ELb1EEaSEOS4_
FN:269,_ZNSt10unique_ptrIN11MyFtpServer15Command_HandlerESt14default_deleteIS1_EEC2IS3_vEEv
FNDA:26,_ZNSt10unique_ptrIN11MyFtpServer15Command_HandlerESt14default_deleteIS1_EEC2IS3_vEEv
FN:269,_ZNSt10unique_ptrINSt7__cxx1112basic_stringIcSt11char_traitsIcESaIcEEESt14default_deleteIS5_EEC2IS7_vEEv
FNDA:0,_ZNSt10unique_ptrINSt7__cxx1112basic_stringIcSt11char_traitsIcESaIcEEESt14default_deleteIS5_EEC2IS7_vEEv
FN:281,_ZNSt10unique_ptrIN11MyFtpServer15Command_HandlerESt14default_deleteIS1_EEC2IS3_vEEPS1_
FNDA:26,_ZNSt10unique_ptrIN11MyFtpServer15Command_HandlerESt14default_deleteIS1_EEC2IS3_vEEPS1_
FN:355,_ZNSt10unique_ptrIN11MyFtpServer15Command_HandlerESt14default_deleteIS1_EED2Ev
FNDA:52,_ZNSt10unique_ptrIN11MyFtpServer15Command_HandlerESt14default_deleteIS1_EED2Ev
FN:355,_ZNSt10unique_ptrINSt7__cxx1112basic_stringIcSt11char_traitsIcESaIcEEESt14default_deleteIS5_EED2Ev
FNDA:0,_ZNSt10unique_ptrINSt7__cxx1112basic_stringIcSt11char_traitsIcESaIcEEESt14default_deleteIS5_EED2Ev
FN:355,_ZNSt10unique_ptrINSt7__cxx1118basic_stringstreamIcSt11char_traitsIcESaIcEEESt14default_deleteIS5_EED2Ev
FNDA:0,_ZNSt10unique_ptrINSt7__cxx1118basic_stringstreamIcSt11char_traitsIcESaIcEEESt14default_deleteIS5_EED2Ev
FN:371,_ZNSt10unique_ptrIN11MyFtpServer15Command_HandlerESt14default_deleteIS1_EEaSEOS4_
FNDA:26,_ZNSt10unique_ptrIN11MyFtpServer15Command_HandlerESt14default_deleteIS1_EEaSEOS4_
FN:413,_ZNKSt10unique_ptrIN11MyFtpServer15Command_HandlerESt14default_deleteIS1_EEptEv
FNDA:192,_ZNKSt10unique_ptrIN11MyFtpServer15Command_HandlerESt14default_deleteIS1_EEptEv
FN:413,_ZNKSt10unique_ptrINSt7__cxx1112basic_stringIcSt11char_traitsIcESaIcEEESt14default_deleteIS5_EEptEv
FNDA:0,_ZNKSt10unique_ptrINSt7__cxx1112basic_stringIcSt11char_traitsIcESaIcEEESt14default_deleteIS5_EEptEv
FN:421,_ZNKSt10unique_ptrIN11MyFtpServer15Command_HandlerESt14default_deleteIS1_EE3getEv
FNDA:192,_ZNKSt10unique_ptrIN11MyFtpServer15Command_HandlerESt14default_deleteIS1_EE3getEv
FN:421,_ZNKSt10unique_ptrINSt7__cxx1112basic_stringIcSt11char_traitsIcESaIcEEESt14default_deleteIS5_EE3getEv
FNDA:0,_ZNKSt10unique_ptrINSt7__cxx1112basic_stringIcSt11char_traitsIcESaIcEEESt14default_deleteIS5_EE3getEv
FN:426,_ZNSt10unique_ptrIN11MyFtpServer15Command_HandlerESt14default_deleteIS1_EE11get_deleterEv
FNDA:26,_ZNSt10unique_ptrIN11MyFtpServer15Command_HandlerESt14default_deleteIS1_EE11get_deleterEv
FN:426,_ZNSt10unique_ptrINSt7__cxx1118basic_stringstreamIcSt11char_traitsIcESaIcEEESt14default_deleteIS5_EE11get_deleterEv
FNDA:0,_ZNSt10unique_ptrINSt7__cxx1118basic_stringstreamIcSt11char_traitsIcESaIcEEESt14default_deleteIS5_EE11get_deleterEv
FN:426,_ZNSt10unique_ptrINSt7__cxx1112basic_stringIcSt11char_traitsIcESaIcEEESt14default_deleteIS5_EE11get_deleterEv
FNDA:0,_ZNSt10unique_ptrINSt7__cxx1112basic_stringIcSt11char_traitsIcESaIcEEESt14default_deleteIS5_EE11get_deleterEv
DA:79,26
DA:85,26
DA:86,26
DA:79,0
DA:85,0
DA:86,0
DA:79,0
DA:85,0
DA:86,0
DA:154,0
DA:154,26
DA:155,26
DA:165,26
DA:167,26
DA:168,26
DA:169,26
DA:172,182
DA:172,0
DA:172,0
DA:173,192
DA:173,0
DA:174,0
DA:174,0
DA:174,78
DA:177,26
DA:179,26
DA:180,26
DA:181,26
DA:182,0
DA:183,26
DA:185,26
DA:187,26
DA:188,26
DA:189,26
DA:212,26
DA:269,0
DA:270,0
DA:271,0
DA:269,26
DA:270,26
DA:271,26
DA:281,26
DA:282,26
DA:283,26
DA:355,52
DA:359,52
DA:360,52
DA:361,26
DA:362,52
DA:363,52
DA:355,0
DA:359,0
DA:360,0
DA:361,0
DA:362,0
DA:363,0
DA:355,0
DA:359,0
DA:360,0
DA:361,0
DA:362,0
DA:363,0
DA:371,26
DA:413,192
DA:416,192
DA:413,0
DA:416,0
DA:421,192
DA:422,192
DA:421,0
DA:422,0
DA:426,26
DA:427,26
DA:426,0
DA:427,0
DA:426,0
DA:427,0
end_of_record
SF:/usr/include/c++/11/tuple
FN:80,_ZNSt10_Head_baseILm1ESt14default_deleteIN11MyFtpServer15Command_HandlerEELb1EEC2Ev
FNDA:52,_ZNSt10_Head_baseILm1ESt14default_deleteIN11MyFtpServer15Command_HandlerEELb1EEC2Ev
FN:80,_ZNSt10_Head_baseILm1ESt14default_deleteINSt7__cxx1112basic_stringIcSt11char_traitsIcESaIcEEEELb1EEC2Ev
FNDA:0,_ZNSt10_Head_baseILm1ESt14default_deleteINSt7__cxx1112basic_stringIcSt11char_traitsIcESaIcEEEELb1EEC2Ev
FN:124,_ZNSt10_Head_baseILm1ESt14default_deleteINSt7__cxx1112basic_stringIcSt11char_traitsIcESaIcEEEELb1EE7_M_headERS8_
FNDA:0,_ZNSt10_Head_baseILm1ESt14default_deleteINSt7__cxx1112basic_stringIcSt11char_traitsIcESaIcEEEELb1EE7_M_headERS8_
FN:124,_ZNSt10_Head_baseILm1ESt14default_deleteIN11MyFtpServer15Command_HandlerEELb1EE7_M_headERS4_
FNDA:78,_ZNSt10_Head_baseILm1ESt14default_deleteIN11MyFtpServer15Command_HandlerEELb1EE7_M_headERS4_
FN:124,_ZNSt10_Head_baseILm1ESt14default_deleteINSt7__cxx1118basic_stringstreamIcSt11char_traitsIcESaIcEEEELb1EE7_M_headERS8_
FNDA:0,_ZNSt10_Head_baseILm1ESt14default_deleteINSt7__cxx1118basic_stringstreamIcSt11char_traitsIcESaIcEEEELb1EE7_M_headERS8_
FN:189,_ZNSt10_Head_baseILm0EPNSt7__cxx1112basic_stringIcSt11char_traitsIcESaIcEEELb0EEC2Ev
FNDA:0,_ZNSt10_Head_baseILm0EPNSt7__cxx1112basic_stringIcSt11char_traitsIcESaIcEEELb0EEC2Ev
FN:189,_ZNSt10_Head_baseILm0EPN11MyFtpServer15Command_HandlerELb0EEC2Ev
FNDA:52,_ZNSt10_Head_baseILm0EPN11MyFtpServer15Command_HandlerELb0EEC2Ev
FN:233,_ZNSt10_Head_baseILm0EPN11MyFtpServer15Command_HandlerELb0EE7_M_headERS3_
FNDA:182,_ZNSt10_Head_baseILm0EPN11MyFtpServer15Command_HandlerELb0EE7_M_headERS3_
FN:233,_ZNSt10_Head_baseILm0EPNSt7__cxx1112basic_stringIcSt11char_traitsIcESaIcEEELb0EE7_M_headERS7_
FNDA:0,_ZNSt10_Head_baseILm0EPNSt7__cxx1112basic_stringIcSt11char_traitsIcESaIcEEELb0EE7_M_headERS7_
FN:233,_ZNSt10_Head_baseILm0EPNSt7__cxx1118basic_stringstreamIcSt11char_traitsIcESaIcEEELb0EE7_M_headERS7_
FNDA:0,_ZNSt10_Head_baseILm0EPNSt7__cxx1118basic_stringstreamIcSt11char_traitsIcESaIcEEELb0EE7_M_headERS7_
FN:236,_ZNSt10_Head_baseILm0EPN11MyFtpServer15Command_HandlerELb0EE7_M_headERKS3_
FNDA:192,_ZNSt10_Head_baseILm0EPN11MyFtpServer15Command_HandlerELb0EE7_M_headERKS3_
FN:236,_ZNSt10_Head_baseILm0EPNSt7__cxx1112basic_stringIcSt11char_traitsIcESaIcEEELb0EE7_M_headERKS7_
FNDA:0,_ZNSt10_Head_baseILm0EPNSt7__cxx1112basic_stringIcSt11char_traitsIcESaIcEEELb0EE7_M_headERKS7_
FN:268,_ZNSt11_Tuple_implILm0EJPN11MyFtpServer15Command_HandlerESt14default_deleteIS1_EEE7_M_headERS5_
FNDA:182,_ZNSt11_Tuple_implILm0EJPN11MyFtpServer15Command_HandlerESt14default_deleteIS1_EEE7_M_headERS5_
FN:268,_ZNSt11_Tuple_implILm0EJPNSt7__cxx1118basic_stringstreamIcSt11char_traitsIcESaIcEEESt14default_deleteIS5_EEE7_M_headERS9_
FNDA:0,_ZNSt11_Tuple_implILm0EJPNSt7__cxx1118basic_stringstreamIcSt11char_traitsIcESaIcEEESt14default_deleteIS5_EEE7_M_headERS9_
FN:268,_ZNSt11_Tuple_implILm0EJPNSt7__cxx1112basic_stringIcSt11char_traitsIcESaIcEEESt14default_deleteIS5_EEE7_M_headERS9_
FNDA:0,_ZNSt11_Tuple_implILm0EJPNSt7__cxx1112basic_stringIcSt11char_traitsIcESaIcEEESt14default_deleteIS5_EEE7_M_headERS9_
FN:271,_ZNSt11_Tuple_implILm0EJPN11MyFtpServer15Command_HandlerESt14default_deleteIS1_EEE7_M_headERKS5_
FNDA:192,_ZNSt11_Tuple_implILm0EJPN11MyFtpServer15Command_HandlerESt14default_deleteIS1_EEE7_M_headERKS5_
FN:271,_ZNSt11_Tuple_implILm0EJPNSt7__cxx1112basic_stringIcSt11char_traitsIcESaIcEEESt14default_deleteIS5_EEE7_M_headERKS9_
FNDA:0,_ZNSt11_Tuple_implILm0EJPNSt7__cxx1112basic_stringIcSt11char_traitsIcESaIcEEESt14default_deleteIS5_EEE7_M_headERKS9_
FN:279,_ZNSt11_Tuple_implILm0EJPN11MyFtpServer15Command_HandlerESt14default_deleteIS1_EEEC2Ev
FNDA:52,_ZNSt11_Tuple_implILm0EJPN11MyFtpServer15Command_HandlerESt14default_deleteIS1_EEEC2Ev
FN:279,_ZNSt11_Tuple_implILm0EJPNSt7__cxx1112basic_stringIcSt11char_traitsIcESaIcEEESt14default_deleteIS5_EEEC2Ev
FNDA:0,_ZNSt11_Tuple_implILm0EJPNSt7__cxx1112basic_stringIcSt11char_traitsIcESaIcEEESt14default_deleteIS5_EEEC2Ev
FN:424,_ZNSt11_Tuple_implILm1EJSt14default_deleteIN11MyFtpServer15Command_HandlerEEEE7_M_headERS4_
FNDA:78,_ZNSt11_Tuple_implILm1EJSt14default_deleteIN11MyFtpServer15Command_HandlerEEEE7_M_headERS4_
FN:424,_ZNSt11_Tuple_implILm1EJSt14default_deleteINSt7__cxx1118basic_stringstreamIcSt11char_traitsIcESaIcEEEEEE7_M_headERS8_
FNDA:0,_ZNSt11_Tuple_implILm1EJSt14default_deleteINSt7__cxx1118basic_stringstreamIcSt11char_traitsIcESaIcEEEEEE7_M_headERS8_
FN:424,_ZNSt11_Tuple_implILm1EJSt14default_deleteINSt7__cxx1112basic_stringIcSt11char_traitsIcESaIcEEEEEE7_M_headERS8_
FNDA:0,_ZNSt11_Tuple_implILm1EJSt14default_deleteINSt7__cxx1112basic_stringIcSt11char_traitsIcESaIcEEEEEE7_M_headERS8_
FN:430,_ZNSt11_Tuple_implILm1EJSt14default_deleteIN11MyFtpServer15Command_HandlerEEEEC2Ev
FNDA:52,_ZNSt11_Tuple_implILm1EJSt14default_deleteIN11MyFtpServer15Command_HandlerEEEEC2Ev
FN:430,_ZNSt11_Tuple_implILm1EJSt14default_deleteINSt7__cxx1112basic_stringIcSt11char_traitsIcESaIcEEEEEEC2Ev
FNDA:0,_ZNSt11_Tuple_implILm1EJSt14default_deleteINSt7__cxx1112basic_stringIcSt11char_traitsIcESaIcEEEEEEC2Ev
FN:1049,_ZNSt5tupleIJPN11MyFtpServer15Command_HandlerESt14default_deleteIS1_EEEC2ILb1ELb1EEEv
FNDA:52,_ZNSt5tupleIJPN11MyFtpServer15Command_HandlerESt14default_deleteIS1_EEEC2ILb1ELb1EEEv
FN:1049,_ZNSt5tupleIJPNSt7__cxx1112basic_stringIcSt11char_traitsIcESaIcEEESt14default_deleteIS5_EEEC2ILb1ELb1EEEv
FNDA:0,_ZNSt5tupleIJPNSt7__cxx1112basic_stringIcSt11char_traitsIcESaIcEEESt14default_deleteIS5_EEEC2ILb1ELb1EEEv
FN:1377,_ZSt12__get_helperILm1ESt14default_deleteIN11MyFtpServer15Command_HandlerEEJEERT0_RSt11_Tuple_implIXT_EJS4_DpT1_EE
FNDA:78,_ZSt12__get_helperILm1ESt14default_deleteIN11MyFtpServer15Command_HandlerEEJEERT0_RSt11_Tuple_implIXT_EJS4_DpT1_EE
FN:1377,_ZSt12__get_helperILm1ESt14default_deleteINSt7__cxx1112basic_stringIcSt11char_traitsIcESaIcEEEEJEERT0_RSt11_Tuple_implIXT_EJS8_DpT1_EE
FNDA:0,_ZSt12__get_helperILm1ESt14default_deleteINSt7__cxx1112basic_stringIcSt11char_traitsIcESaIcEEEEJEERT0_RSt11_Tuple_implIXT_EJS8_DpT1_EE
FN:1377,_ZSt12__get_helperILm1ESt14default_deleteINSt7__cxx1118basic_stringstreamIcSt11char_traitsIcESaIcEEEEJEERT0_RSt11_Tuple_implIXT_EJS8_DpT1_EE
FNDA:0,_ZSt12__get_helperILm1ESt14default_deleteINSt7__cxx1118basic_stringstreamIcSt11char_traitsIcESaIcEEEEJEERT0_RSt11_Tuple_implIXT_EJS8_DpT1_EE
FN:1377,_ZSt12__get_helperILm0EPNSt7__cxx1118basic_stringstreamIcSt11char_traitsIcESaIcEEEJSt14default_deleteIS5_EEERT0_RSt11_Tuple_implIXT_EJS9_DpT1_EE
FNDA:0,_ZSt12__get_helperILm0EPNSt7__cxx1118basic_stringstreamIcSt11char_traitsIcESaIcEEEJSt14default_deleteIS5_EEERT0_RSt11_Tuple_implIXT_EJS9_DpT1_EE
FN:1377,_ZSt12__get_helperILm0EPNSt7__cxx1112basic_stringIcSt11char_traitsIcESaIcEEEJSt14default_deleteIS5_EEERT0_RSt11_Tuple_implIXT_EJS9_DpT1_EE
FNDA:0,_ZSt12__get_helperILm0EPNSt7__cxx1112basic_stringIcSt11char_traitsIcESaIcEEEJSt14default_deleteIS5_EEERT0_RSt11_Tuple_implIXT_EJS9_DpT1_EE
FN:1377,_ZSt12__get_helperILm0EPN11MyFtpServer15Command_HandlerEJSt14default_deleteIS1_EEERT0_RSt11_Tuple_implIXT_EJS5_DpT1_EE
FNDA:182,_ZSt12__get_helperILm0EPN11MyFtpServer15Command_HandlerEJSt14default_deleteIS1_EEERT0_RSt11_Tuple_implIXT_EJS5_DpT1_EE
FN:1382,_ZSt12__get_helperILm0EPNSt7__cxx1112basic_stringIcSt11char_traitsIcESaIcEEEJSt14default_deleteIS5_EEERKT0_RKSt11_Tuple_implIXT_EJS9_DpT1_EE
FNDA:0,_ZSt12__get_helperILm0EPNSt7__cxx1112basic_stringIcSt11char_traitsIcESaIcEEEJSt14default_deleteIS5_EEERKT0_RKSt11_Tuple_implIXT_EJS9_DpT1_EE
FN:1382,_ZSt12__get_helperILm0EPN11MyFtpServer15Command_HandlerEJSt14default_deleteIS1_EEERKT0_RKSt11_Tuple_implIXT_EJS5_DpT1_EE
FNDA:192,_ZSt12__get_helperILm0EPN11MyFtpServer15Command_HandlerEJSt14default_deleteIS1_EEERKT0_RKSt11_Tuple_implIXT_EJS5_DpT1_EE
FN:1393,_ZSt3getILm1EJPNSt7__cxx1118basic_stringstreamIcSt11char_traitsIcESaIcEEESt14default_deleteIS5_EEERNSt13tuple_elementIXT_ESt5tupleIJDpT0_EEE4typeERSD_
FNDA:0,_ZSt3getILm1EJPNSt7__cxx1118basic_stringstreamIcSt11char_traitsIcESaIcEEESt14default_deleteIS5_EEERNSt13tuple_elementIXT_ESt5tupleIJDpT0_EEE4typeERSD_
FN:1393,_ZSt3getILm1EJPN11MyFtpServer15Command_HandlerESt14default_deleteIS1_EEERNSt13tuple_elementIXT_ESt5tupleIJDpT0_EEE4typeERS9_
FNDA:78,_ZSt3getILm1EJPN11MyFtpServer15Command_HandlerESt14default_deleteIS1_EEERNSt13tuple_elementIXT_ESt5tupleIJDpT0_EEE4typeERS9_
FN:1393,_ZSt3getILm0EJPN11MyFtpServer15Command_HandlerESt14default_deleteIS1_EEERNSt13tuple_elementIXT_ESt5tupleIJDpT0_EEE4typeERS9_
FNDA:182,_ZSt3getILm0EJPN11MyFtpServer15Command_HandlerESt14default_deleteIS1_EEERNSt13tuple_elementIXT_ESt5tupleIJDpT0_EEE4typeERS9_
FN:1393,_ZSt3getILm1EJPNSt7__cxx1112basic_stringIcSt11char_traitsIcESaIcEEESt14default_deleteIS5_EEERNSt13tuple_elementIXT_ESt5tupleIJDpT0_EEE4typeERSD_
FNDA:0,_ZSt3getILm1EJPNSt7__cxx1112basic_stringIcSt11char_traitsIcESaIcEEESt14default_deleteIS5_EEERNSt13tuple_elementIXT_ESt5tupleIJDpT0_EEE4typeERSD_
FN:1393,_ZSt3getILm0EJPNSt7__cxx1112basic_stringIcSt11char_traitsIcESaIcEEESt14default_deleteIS5_EEERNSt13tuple_elementIXT_ESt5tupleIJDpT0_EEE4typeERSD_
FNDA:0,_ZSt3getILm0EJPNSt7__cxx1112basic_stringIcSt11char_traitsIcESaIcEEESt14default_deleteIS5_EEERNSt13tuple_elementIXT_ESt5tupleIJDpT0_EEE4typeERSD_
FN:1393,_ZSt3getILm0EJPNSt7__cxx1118basic_stringstreamIcSt11char_traitsIcESaIcEEESt14default_deleteIS5_EEERNSt13tuple_elementIXT_ESt5tupleIJDpT0_EEE4typeERSD_
FNDA:0,_ZSt3getILm0EJPNSt7__cxx1118basic_stringstreamIcSt11char_traitsIcESaIcEEESt14default_deleteIS5_EEERNSt13tuple_elementIXT_ESt5tupleIJDpT0_EEE4typeERSD_
FN:1399,_ZSt3getILm0EJPN11MyFtpServer15Command_HandlerESt14default_deleteIS1_EEERKNSt13tuple_elementIXT_ESt5tupleIJDpT0_EEE4typeERKS9_
FNDA:192,_ZSt3getILm0EJPN11MyFtpServer15Command_HandlerESt14default_deleteIS1_EEERKNSt13tuple_elementIXT_ESt5tupleIJDpT0_EEE4typeERKS9_
FN:1399,_ZSt3getILm0EJPNSt7__cxx1112basic_stringIcSt11char_traitsIcESaIcEEESt14default_deleteIS5_EEERKNSt13tuple_elementIXT_ESt5tupleIJDpT0_EEE4typeERKSD_
FNDA:0,_ZSt3getILm0EJPNSt7__cxx1112basic_stringIcSt11char_traitsIcESaIcEEESt14default_deleteIS5_EEERKNSt13tuple_elementIXT_ESt5tupleIJDpT0_EEE4typeERKSD_
DA:80,0
DA:81,0
DA:80,52
DA:81,52
DA:124,0
DA:124,0
DA:124,78
DA:189,0
DA:190,0
DA:189,52
DA:190,52
DA:233,182
DA:233,0
DA:233,0
DA:236,192
DA:236,0
DA:268,182
DA:268,0
DA:268,0
DA:271,192
DA:271,0
DA:279,0
DA:280,0
DA:279,52
DA:280,52
DA:424,0
DA:424,0
DA:424,78
DA:430,0
DA:431,0
DA:430,52
DA:431,52
DA:1049,0
DA:1051,0
DA:1049,52
DA:1051,52
DA:1377,0
DA:1378,0
DA:1377,0
DA:1378,0
DA:1377,78
DA:1378,78
DA:1377,182
DA:1378,182
DA:1377,0
DA:1378,0
DA:1377,0
DA:1378,0
DA:1382,192
DA:1383,192
DA:1382,0
DA:1383,0
DA:1393,0
DA:1394,0
DA:1393,0
DA:1394,0
DA:1393,78
DA:1394,78
DA:1393,182
DA:1394,182
DA:1393,0
DA:1394,0
DA:1393,0
DA:1394,0
DA:1399,192
DA:1400,192
DA:1399,0
DA:1400,0
end_of_record
SF:/usr/include/c++/11/ext/type_traits.h
FN:152,_ZN9__gnu_cxx17__is_null_pointerIcEEbPT_
FNDA:0,_ZN9__gnu_cxx17__is_null_pointerIcEEbPT_
FN:152,_ZN9__gnu_cxx17__is_null_pointerIKcEEbPT_
FNDA:0,_ZN9__gnu_cxx17__is_null_pointerIKcEEbPT_
DA:152,0
DA:153,0
DA:152,0
DA:153,0
end_of_record
SF:/usr/include/c++/11/ext/alloc_traits.h
FN:97,_ZN9__gnu_cxx14__alloc_traitsISaIcEcE17_S_select_on_copyERKS1_
FNDA:0,_ZN9__gnu_cxx14__alloc_traitsISaIcEcE17_S_select_on_copyERKS1_
DA:97,0
DA:98,0
end_of_record
SF:/usr/include/c++/11/bits/move.h
FN:77,_ZSt7forwardISt14default_deleteIN11MyFtpServer15Command_HandlerEEEOT_RNSt16remove_referenceIS4_E4typeE
FNDA:26,_ZSt7forwardISt14default_deleteIN11MyFtpServer15Command_HandlerEEEOT_RNSt16remove_referenceIS4_E4typeE
FN:104,_ZSt4moveIRPN11MyFtpServer15Command_HandlerEEONSt16remove_referenceIT_E4typeEOS5_
FNDA:26,_ZSt4moveIRPN11MyFtpServer15Command_HandlerEEONSt16remove_referenceIT_E4typeEOS5_
FN:104,_ZSt4moveIRPNSt7__cxx1112basic_stringIcSt11char_traitsIcESaIcEEEEONSt16remove_referenceIT_E4typeEOS9_
FNDA:0,_ZSt4moveIRPNSt7__cxx1112basic_stringIcSt11char_traitsIcESaIcEEEEONSt16remove_referenceIT_E4typeEOS9_
FN:104,_ZSt4moveIRPNSt7__cxx1118basic_stringstreamIcSt11char_traitsIcESaIcEEEEONSt16remove_referenceIT_E4typeEOS9_
FNDA:0,_ZSt4moveIRPNSt7__cxx1118basic_stringstreamIcSt11char_traitsIcESaIcEEEEONSt16remove_referenceIT_E4typeEOS9_
FN:104,_ZSt4moveIRNSt7__cxx1112basic_stringIcSt11char_traitsIcESaIcEEEEONSt16remove_referenceIT_E4typeEOS8_
FNDA:0,_ZSt4moveIRNSt7__cxx1112basic_stringIcSt11char_traitsIcESaIcEEEEONSt16remove_referenceIT_E4typeEOS8_
FN:104,_ZSt4moveIRSaIcEEONSt16remove_referenceIT_E4typeEOS3_
FNDA:0,_ZSt4moveIRSaIcEEONSt16remove_referenceIT_E4typeEOS3_
DA:77,26
DA:78,26
DA:104,26
DA:105,26
DA:104,0
DA:105,0
DA:104,0
DA:105,0
DA:104,0
DA:105,0
DA:104,0
DA:105,0
end_of_record
SF:/usr/include/ace/Thread_Manager.inl
FN:72,_ZN26ACE_Thread_Descriptor_BaseD0Ev
FNDA:0,_ZN26ACE_Thread_Descriptor_BaseD0Ev
FN:72,_ZN26ACE_Thread_Descriptor_BaseD2Ev
FNDA:0,_ZN26ACE_Thread_Descriptor_BaseD2Ev
DA:72,0
DA:74,0
DA:72,0
DA:74,0
end_of_record
SF:/usr/include/c++/11/bits/exception.h
FN:64,_ZNSt9exceptionC2Ev
FNDA:0,_ZNSt9exceptionC2Ev
DA:64,0
end_of_record
SF:/usr/include/gtest/gtest-message.h
end_of_record
SF:/usr/include/c++/11/ext/aligned_buffer.h
FN:64,_ZN9__gnu_cxx16__aligned_membufINSt7__cxx1112basic_stringIcSt11char_traitsIcESaIcEEEE7_M_addrEv
FNDA:0,_ZN9__gnu_cxx16__aligned_membufINSt7__cxx1112basic_stringIcSt11char_traitsIcESaIcEEEE7_M_addrEv
FN:72,_ZN9__gnu_cxx16__aligned_membufINSt7__cxx1112basic_stringIcSt11char_traitsIcESaIcEEEE6_M_ptrEv
FNDA:0,_ZN9__gnu_cxx16__aligned_membufINSt7__cxx1112basic_stringIcSt11char_traitsIcESaIcEEEE6_M_ptrEv
DA:64,0
DA:65,0
DA:72,0
DA:73,0
end_of_record
SF:/usr/include/c++/11/bits/allocator.h
FN:156,_ZNSaISt10_List_nodeINSt7__cxx1112basic_stringIcSt11char_traitsIcESaIcEEEEEC2Ev
FNDA:0,_ZNSaISt10_List_nodeINSt7__cxx1112basic_stringIcSt11char_traitsIcESaIcEEEEEC2Ev
FN:174,_ZNSaISt10_List_nodeINSt7__cxx1112basic_stringIcSt11char_traitsIcESaIcEEEEED2Ev
FNDA:0,_ZNSaISt10_List_nodeINSt7__cxx1112basic_stringIcSt11char_traitsIcESaIcEEEEED2Ev
DA:156,0
DA:174,0
end_of_record
SF:/usr/include/c++/11/bits/stl_list.h
FN:110,_ZNSt8__detail17_List_node_headerC2Ev
FNDA:0,_ZNSt8__detail17_List_node_headerC2Ev
FN:150,_ZNSt8__detail17_List_node_header7_M_initEv
FNDA:0,_ZNSt8__detail17_List_node_header7_M_initEv
FN:171,_ZNSt10_List_nodeINSt7__cxx1112basic_stringIcSt11char_traitsIcESaIcEEEE9_M_valptrEv
FNDA:0,_ZNSt10_List_nodeINSt7__cxx1112basic_stringIcSt11char_traitsIcESaIcEEEE9_M_valptrEv
FN:380,_ZNSt7__cxx1110_List_baseINS_12basic_stringIcSt11char_traitsIcESaIcEEESaIS5_EE10_List_implC2Ev
FNDA:0,_ZNSt7__cxx1110_List_baseINS_12basic_stringIcSt11char_traitsIcESaIcEEESaIS5_EE10_List_implC2Ev
FN:405,_ZNKSt7__cxx1110_List_baseINS_12basic_stringIcSt11char_traitsIcESaIcEEESaIS5_EE11_M_get_sizeEv
FNDA:1,_ZNKSt7__cxx1110_List_baseINS_12basic_stringIcSt11char_traitsIcESaIcEEESaIS5_EE11_M_get_sizeEv
FN:446,_ZNSt7__cxx1110_List_baseINS_12basic_stringIcSt11char_traitsIcESaIcEEESaIS5_EE11_M_put_nodeEPSt10_List_nodeIS5_E
FNDA:0,_ZNSt7__cxx1110_List_baseINS_12basic_stringIcSt11char_traitsIcESaIcEEESaIS5_EE11_M_put_nodeEPSt10_List_nodeIS5_E
FN:453,_ZNSt7__cxx1110_List_baseINS_12basic_stringIcSt11char_traitsIcESaIcEEESaIS5_EE21_M_get_Node_allocatorEv
FNDA:0,_ZNSt7__cxx1110_List_baseINS_12basic_stringIcSt11char_traitsIcESaIcEEESaIS5_EE21_M_get_Node_allocatorEv
FN:461,_ZNSt7__cxx1110_List_baseINS_12basic_stringIcSt11char_traitsIcESaIcEEESaIS5_EEC2Ev
FNDA:0,_ZNSt7__cxx1110_List_baseINS_12basic_stringIcSt11char_traitsIcESaIcEEESaIS5_EEC2Ev
FN:499,_ZNSt7__cxx1110_List_baseINS_12basic_stringIcSt11char_traitsIcESaIcEEESaIS5_EED2Ev
FNDA:0,_ZNSt7__cxx1110_List_baseINS_12basic_stringIcSt11char_traitsIcESaIcEEESaIS5_EED2Ev
FN:652,_ZNKSt7__cxx114listINS_12basic_stringIcSt11char_traitsIcESaIcEEESaIS5_EE13_M_node_countEv
FNDA:1,_ZNKSt7__cxx114listINS_12basic_stringIcSt11char_traitsIcESaIcEEESaIS5_EE13_M_node_countEv
FN:674,_ZNSt7__cxx114listINS_12basic_stringIcSt11char_traitsIcESaIcEEESaIS5_EEC2Ev
FNDA:0,_ZNSt7__cxx114listINS_12basic_stringIcSt11char_traitsIcESaIcEEESaIS5_EEC2Ev
FN:828,_ZNSt7__cxx114listINS_12basic_stringIcSt11char_traitsIcESaIcEEESaIS5_EED2Ev
FNDA:0,_ZNSt7__cxx114listINS_12basic_stringIcSt11char_traitsIcESaIcEEESaIS5_EED2Ev
FN:1061,_ZNKSt7__cxx114listINS_12basic_stringIcSt11char_traitsIcESaIcEEESaIS5_EE4sizeEv
FNDA:1,_ZNKSt7__cxx114listINS_12basic_stringIcSt11char_traitsIcESaIcEEESaIS5_EE4sizeEv
DA:110,0
DA:111,0
DA:150,0
DA:152,0
DA:154,0
DA:156,0
DA:171,0
DA:380,0
DA:382,0
DA:383,0
DA:405,1
DA:446,0
DA:447,0
DA:453,0
DA:454,0
DA:461,0
DA:499,0
DA:500,0
DA:652,1
DA:653,1
DA:674,0
DA:828,0
DA:1061,1
DA:1062,1
end_of_record
SF:/usr/include/c++/11/bits/basic_string.tcc
FN:206,_ZNSt7__cxx1112basic_stringIcSt11char_traitsIcESaIcEE12_M_constructIPcEEvT_S7_St20forward_iterator_tag
FNDA:0,_ZNSt7__cxx1112basic_stringIcSt11char_traitsIcESaIcEE12_M_constructIPcEEvT_S7_St20forward_iterator_tag
FN:206,_ZNSt7__cxx1112basic_stringIcSt11char_traitsIcESaIcEE12_M_constructIPKcEEvT_S8_St20forward_iterator_tag
FNDA:0,_ZNSt7__cxx1112basic_stringIcSt11char_traitsIcESaIcEE12_M_constructIPKcEEvT_S8_St20forward_iterator_tag
DA:206,0
DA:211,0
DA:212,0
DA:215,0
DA:217,0
DA:219,0
DA:220,0
DA:225,0
DA:226,0
DA:228,0
DA:229,0
DA:232,0
DA:233,0
DA:206,0
DA:211,0
DA:212,0
DA:215,0
DA:217,0
DA:219,0
DA:220,0
DA:225,0
DA:226,0
DA:228,0
DA:229,0
DA:232,0
DA:233,0
end_of_record
SF:/usr/include/c++/11/bits/basic_string.h
FN:251,_ZNSt7__cxx1112basic_stringIcSt11char_traitsIcESaIcEE16_M_construct_auxIPcEEvT_S7_St12__false_type
FNDA:0,_ZNSt7__cxx1112basic_stringIcSt11char_traitsIcESaIcEE16_M_construct_auxIPcEEvT_S7_St12__false_type
FN:251,_ZNSt7__cxx1112basic_stringIcSt11char_traitsIcESaIcEE16_M_construct_auxIPKcEEvT_S8_St12__false_type
FNDA:0,_ZNSt7__cxx1112basic_stringIcSt11char_traitsIcESaIcEE16_M_construct_auxIPKcEEvT_S8_St12__false_type
FN:271,_ZNSt7__cxx1112basic_stringIcSt11char_traitsIcESaIcEE12_M_constructIPcEEvT_S7_
FNDA:0,_ZNSt7__cxx1112basic_stringIcSt11char_traitsIcESaIcEE12_M_constructIPcEEvT_S7_
FN:271,_ZNSt7__cxx1112basic_stringIcSt11char_traitsIcESaIcEE12_M_constructIPKcEEvT_S8_
FNDA:0,_ZNSt7__cxx1112basic_stringIcSt11char_traitsIcESaIcEE12_M_constructIPKcEEvT_S8_
FN:533,_ZNSt7__cxx1112basic_stringIcSt11char_traitsIcESaIcEEC2IS3_EEPKcRKS3_
FNDA:0,_ZNSt7__cxx1112basic_stringIcSt11char_traitsIcESaIcEEC2IS3_EEPKcRKS3_
FN:6206,_ZStplIcSt11char_traitsIcESaIcEENSt7__cxx1112basic_stringIT_T0_T1_EEOS8_PKS5_
FNDA:0,_ZStplIcSt11char_traitsIcESaIcEENSt7__cxx1112basic_stringIT_T0_T1_EEOS8_PKS5_
FN:6234,_ZSteqIcEN9__gnu_cxx11__enable_ifIXsrSt9__is_charIT_E7__valueEbE6__typeERKNSt7__cxx1112basic_stringIS3_St11char_traitsIS3_ESaIS3_EEESE_
FNDA:0,_ZSteqIcEN9__gnu_cxx11__enable_ifIXsrSt9__is_charIT_E7__valueEbE6__typeERKNSt7__cxx1112basic_stringIS3_St11char_traitsIS3_ESaIS3_EEESE_
FN:6248,_ZSteqIcSt11char_traitsIcESaIcEEbRKNSt7__cxx1112basic_stringIT_T0_T1_EEPKS5_
FNDA:19,_ZSteqIcSt11char_traitsIcESaIcEEbRKNSt7__cxx1112basic_stringIT_T0_T1_EEPKS5_
FN:6289,_ZSteqIcSt11char_traitsIcESaIcEEbPKT_RKNSt7__cxx1112basic_stringIS3_T0_T1_EE
FNDA:0,_ZSteqIcSt11char_traitsIcESaIcEEbPKT_RKNSt7__cxx1112basic_stringIS3_T0_T1_EE
DA:251,0
DA:255,0
DA:256,0
DA:251,0
DA:255,0
DA:256,0
DA:271,0
DA:274,0
DA:275,0
DA:271,0
DA:274,0
DA:275,0
DA:533,0
DA:534,0
DA:536,0
DA:539,0
DA:540,0
DA:6206,0
DA:6208,0
DA:6234,0
DA:6236,0
DA:6237,0
DA:6238,0
DA:6248,19
DA:6250,19
DA:6289,0
DA:6291,0
end_of_record
SF:/usr/include/c++/11/iostream
end_of_record
SF:/usr/include/c++/11/bits/char_traits.h
FN:106,_ZN9__gnu_cxx11char_traitsIcE2eqERKcS3_
FNDA:0,_ZN9__gnu_cxx11char_traitsIcE2eqERKcS3_
FN:167,_ZN9__gnu_cxx11char_traitsIcE6lengthEPKc
FNDA:0,_ZN9__gnu_cxx11char_traitsIcE6lengthEPKc
FN:364,_ZNSt11char_traitsIcE2ltERKcS2_
FNDA:0,_ZNSt11char_traitsIcE2ltERKcS2_
FN:372,_ZNSt11char_traitsIcE7compareEPKcS2_m
FNDA:0,_ZNSt11char_traitsIcE7compareEPKcS2_m
FN:393,_ZNSt11char_traitsIcE6lengthEPKc
FNDA:0,_ZNSt11char_traitsIcE6lengthEPKc
FN:429,_ZNSt11char_traitsIcE4copyEPcPKcm
FNDA:0,_ZNSt11char_traitsIcE4copyEPcPKcm
DA:106,0
DA:107,0
DA:167,0
DA:170,0
DA:171,0
DA:172,0
DA:173,0
DA:290,0
DA:364,0
DA:367,0
DA:368,0
DA:372,0
DA:374,0
DA:375,0
DA:377,0
DA:379,0
DA:381,0
DA:382,0
DA:383,0
DA:384,0
DA:385,0
DA:386,0
DA:389,0
DA:393,0
DA:396,0
DA:397,0
DA:399,0
DA:429,0
DA:431,0
DA:432,0
DA:437,0
end_of_record
